00000000  FA                cli
00000001  BC8D1F1000        mov esp,0x101f8d
00000006  E83C020000        call dword 0x247
0000000B  E8290B0000        call dword 0xb39
00000010  E858020000        call dword 0x26d
00000015  E8C00A0000        call dword 0xada
0000001A  E89F000000        call dword 0xbe
0000001F  FB                sti
00000020  B83412ADFE        mov eax,0xfead1234
00000025  E8C3000000        call dword 0xed
0000002A  E8A9010000        call dword 0x1d8
0000002F  E8A4010000        call dword 0x1d8
00000034  E89F010000        call dword 0x1d8
00000039  E89A010000        call dword 0x1d8
0000003E  E895010000        call dword 0x1d8
00000043  E890010000        call dword 0x1d8
00000048  E88B010000        call dword 0x1d8
0000004D  E886010000        call dword 0x1d8
00000052  E881010000        call dword 0x1d8
00000057  E87C010000        call dword 0x1d8
0000005C  E877010000        call dword 0x1d8
00000061  E872010000        call dword 0x1d8
00000066  E86D010000        call dword 0x1d8
0000006B  E868010000        call dword 0x1d8
00000070  E863010000        call dword 0x1d8
00000075  E85E010000        call dword 0x1d8
0000007A  E859010000        call dword 0x1d8
0000007F  E854010000        call dword 0x1d8
00000084  E84F010000        call dword 0x1d8
00000089  E84A010000        call dword 0x1d8
0000008E  E845010000        call dword 0x1d8
00000093  E840010000        call dword 0x1d8
00000098  E83B010000        call dword 0x1d8
0000009D  E836010000        call dword 0x1d8
000000A2  BE7A0F1000        mov esi,0x100f7a
000000A7  E82C000000        call dword 0xd8
000000AC  E827000000        call dword 0xd8
000000B1  E822000000        call dword 0xd8
000000B6  E81D000000        call dword 0xd8
000000BB  F4                hlt
000000BC  EBFD              jmp short 0xbb
000000BE  50                push eax
000000BF  51                push ecx
000000C0  57                push edi
000000C1  8B0D4D011000      mov ecx,[dword 0x10014d]
000000C7  66B80007          mov ax,0x700
000000CB  8B3D51011000      mov edi,[dword 0x100151]
000000D1  F366AB            rep stosw
000000D4  5F                pop edi
000000D5  59                pop ecx
000000D6  58                pop eax
000000D7  C3                ret
000000D8  50                push eax
000000D9  51                push ecx
000000DA  56                push esi
000000DB  AC                lodsb
000000DC  08C0              or al,al
000000DE  7409              jz 0xe9
000000E0  B407              mov ah,0x7
000000E2  E859000000        call dword 0x140
000000E7  EBF2              jmp short 0xdb
000000E9  5E                pop esi
000000EA  59                pop ecx
000000EB  58                pop eax
000000EC  C3                ret
000000ED  50                push eax
000000EE  51                push ecx
000000EF  52                push edx
000000F0  56                push esi
000000F1  BE5D011000        mov esi,0x10015d
000000F6  E8DDFFFFFF        call dword 0xd8
000000FB  5E                pop esi
000000FC  B908000000        mov ecx,0x8
00000101  C1C004            rol eax,byte 0x4
00000104  89C2              mov edx,eax
00000106  83E20F            and edx,byte +0xf
00000109  83CA30            or edx,byte +0x30
0000010C  83FA3A            cmp edx,byte +0x3a
0000010F  7203              jc 0x114
00000111  83C207            add edx,byte +0x7
00000114  50                push eax
00000115  88D0              mov al,dl
00000117  B407              mov ah,0x7
00000119  E822000000        call dword 0x140
0000011E  58                pop eax
0000011F  E2E0              loop 0x101
00000121  5A                pop edx
00000122  59                pop ecx
00000123  58                pop eax
00000124  C3                ret
00000125  1900              sbb [eax],eax
00000127  0000              add [eax],al
00000129  50                push eax
0000012A  0000              add [eax],al
0000012C  00D0              add al,dl
0000012E  07                pop es
0000012F  0000              add [eax],al
00000131  00800B00A000      add [eax+0xa0000b],al
00000137  0000              add [eax],al
00000139  D0870B003078      rol byte [edi+0x7830000b],1
0000013F  00533C            add [ebx+0x3c],dl
00000142  0874683C          or [eax+ebp*2+0x3c],dh
00000146  0A743957          or dh,[ecx+edi+0x57]
0000014A  50                push eax
0000014B  A15F021000        mov eax,[0x10025f]
00000150  F72555011000      mul dword [dword 0x100155]
00000156  030563021000      add eax,[dword 0x100263]
0000015C  030563021000      add eax,[dword 0x100263]
00000162  030551011000      add eax,[dword 0x100151]
00000168  89C7              mov edi,eax
0000016A  58                pop eax
0000016B  66AB              stosw
0000016D  5F                pop edi
0000016E  FF0563021000      inc dword [dword 0x100263]
00000174  8B1D63021000      mov ebx,[dword 0x100263]
0000017A  3B1D49011000      cmp ebx,[dword 0x100149]
00000180  7C54              jl 0x1d6
00000182  C705630210000000  mov dword [dword 0x100263],0x0
         -0000
0000018C  FF055F021000      inc dword [dword 0x10025f]
00000192  8B1D5F021000      mov ebx,[dword 0x10025f]
00000198  3B1D45011000      cmp ebx,[dword 0x100145]
0000019E  7C36              jl 0x1d6
000001A0  E85F000000        call dword 0x204
000001A5  FF0D5F021000      dec dword [dword 0x10025f]
000001AB  EB29              jmp short 0x1d6
000001AD  833D6302100000    cmp dword [dword 0x100263],byte +0x0
000001B4  7406              jz 0x1bc
000001B6  FF0D63021000      dec dword [dword 0x100263]
000001BC  833D5F02100000    cmp dword [dword 0x10025f],byte +0x0
000001C3  7411              jz 0x1d6
000001C5  8B1D49011000      mov ebx,[dword 0x100149]
000001CB  83EB01            sub ebx,byte +0x1
000001CE  891D5F021000      mov [dword 0x10025f],ebx
000001D4  7400              jz 0x1d6
000001D6  5B                pop ebx
000001D7  C3                ret
000001D8  53                push ebx
000001D9  C705630210000000  mov dword [dword 0x100263],0x0
         -0000
000001E3  FF055F021000      inc dword [dword 0x10025f]
000001E9  8B1D5F021000      mov ebx,[dword 0x10025f]
000001EF  3B1D45011000      cmp ebx,[dword 0x100145]
000001F5  7C0B              jl 0x202
000001F7  E808000000        call dword 0x204
000001FC  FF0D5F021000      dec dword [dword 0x10025f]
00000202  5B                pop ebx
00000203  C3                ret
00000204  56                push esi
00000205  57                push edi
00000206  51                push ecx
00000207  50                push eax
00000208  BE51011000        mov esi,0x100151
0000020D  81C655011000      add esi,0x100155
00000213  BF51011000        mov edi,0x100151
00000218  B94D011000        mov ecx,0x10014d
0000021D  C1E902            shr ecx,byte 0x2
00000220  FC                cld
00000221  F3A5              rep movsd
00000223  BE59011000        mov esi,0x100159
00000228  81EE55011000      sub esi,0x100155
0000022E  31C0              xor eax,eax
00000230  B955011000        mov ecx,0x100155
00000235  C1E902            shr ecx,byte 0x2
00000238  F3AB              rep stosd
0000023A  58                pop eax
0000023B  59                pop ecx
0000023C  5F                pop edi
0000023D  5E                pop esi
0000023E  C3                ret
0000023F  0000              add [eax],al
00000241  0000              add [eax],al
00000243  0000              add [eax],al
00000245  0000              add [eax],al
00000247  0F01156F021000    lgdt [dword 0x10026f]
0000024E  C3                ret
0000024F  1800              sbb [eax],al
00000251  7502              jnz 0x255
00000253  1000              adc [eax],al
00000255  0000              add [eax],al
00000257  0000              add [eax],al
00000259  0000              add [eax],al
0000025B  0000              add [eax],al
0000025D  FF                db 0xff
0000025E  FF00              inc dword [eax]
00000260  0000              add [eax],al
00000262  9ACF00FFFF0000    call dword 0x0:0xffff00cf
00000269  0092CF000F01      add [edx+0x10f00cf],dl
0000026F  1DF4021000        sbb eax,0x1002f4
00000274  C3                ret
00000275  50                push eax
00000276  53                push ebx
00000277  6651              push cx
00000279  25FF000000        and eax,0xff
0000027E  66B90800          mov cx,0x8
00000282  66F7E1            mul cx
00000285  668998FA021000    mov [eax+0x1002fa],bx
0000028C  C1EB10            shr ebx,byte 0x10
0000028F  66899800031000    mov [eax+0x100300],bx
00000296  66C780FC02100008  mov word [eax+0x1002fc],0x8
         -00
0000029F  66C780FE02100000  mov word [eax+0x1002fe],0x8e00
         -8E
000002A8  6659              pop cx
000002AA  5B                pop ebx
000002AB  58                pop eax
000002AC  C3                ret
000002AD  50                push eax
000002AE  6651              push cx
000002B0  25FF000000        and eax,0xff
000002B5  66B90800          mov cx,0x8
000002B9  66F7E1            mul cx
000002BC  C780FA0210000000  mov dword [eax+0x1002fa],0x0
         -0000
000002C6  C780FE0210000000  mov dword [eax+0x1002fe],0x0
         -0000
000002D0  6659              pop cx
000002D2  58                pop eax
000002D3  C3                ret
000002D4  FF07              inc dword [edi]
000002D6  FA                cli
000002D7  0210              add dl,[eax]
000002D9  0000              add [eax],al
000002DB  0000              add [eax],al
000002DD  0000              add [eax],al
000002DF  0000              add [eax],al
000002E1  0000              add [eax],al
000002E3  0000              add [eax],al
000002E5  0000              add [eax],al
000002E7  0000              add [eax],al
000002E9  0000              add [eax],al
000002EB  0000              add [eax],al
000002ED  0000              add [eax],al
000002EF  0000              add [eax],al
000002F1  0000              add [eax],al
000002F3  0000              add [eax],al
000002F5  0000              add [eax],al
000002F7  0000              add [eax],al
000002F9  0000              add [eax],al
000002FB  0000              add [eax],al
000002FD  0000              add [eax],al
000002FF  0000              add [eax],al
00000301  0000              add [eax],al
00000303  0000              add [eax],al
00000305  0000              add [eax],al
00000307  0000              add [eax],al
00000309  0000              add [eax],al
0000030B  0000              add [eax],al
0000030D  0000              add [eax],al
0000030F  0000              add [eax],al
00000311  0000              add [eax],al
00000313  0000              add [eax],al
00000315  0000              add [eax],al
00000317  0000              add [eax],al
00000319  0000              add [eax],al
0000031B  0000              add [eax],al
0000031D  0000              add [eax],al
0000031F  0000              add [eax],al
00000321  0000              add [eax],al
00000323  0000              add [eax],al
00000325  0000              add [eax],al
00000327  0000              add [eax],al
00000329  0000              add [eax],al
0000032B  0000              add [eax],al
0000032D  0000              add [eax],al
0000032F  0000              add [eax],al
00000331  0000              add [eax],al
00000333  0000              add [eax],al
00000335  0000              add [eax],al
00000337  0000              add [eax],al
00000339  0000              add [eax],al
0000033B  0000              add [eax],al
0000033D  0000              add [eax],al
0000033F  0000              add [eax],al
00000341  0000              add [eax],al
00000343  0000              add [eax],al
00000345  0000              add [eax],al
00000347  0000              add [eax],al
00000349  0000              add [eax],al
0000034B  0000              add [eax],al
0000034D  0000              add [eax],al
0000034F  0000              add [eax],al
00000351  0000              add [eax],al
00000353  0000              add [eax],al
00000355  0000              add [eax],al
00000357  0000              add [eax],al
00000359  0000              add [eax],al
0000035B  0000              add [eax],al
0000035D  0000              add [eax],al
0000035F  0000              add [eax],al
00000361  0000              add [eax],al
00000363  0000              add [eax],al
00000365  0000              add [eax],al
00000367  0000              add [eax],al
00000369  0000              add [eax],al
0000036B  0000              add [eax],al
0000036D  0000              add [eax],al
0000036F  0000              add [eax],al
00000371  0000              add [eax],al
00000373  0000              add [eax],al
00000375  0000              add [eax],al
00000377  0000              add [eax],al
00000379  0000              add [eax],al
0000037B  0000              add [eax],al
0000037D  0000              add [eax],al
0000037F  0000              add [eax],al
00000381  0000              add [eax],al
00000383  0000              add [eax],al
00000385  0000              add [eax],al
00000387  0000              add [eax],al
00000389  0000              add [eax],al
0000038B  0000              add [eax],al
0000038D  0000              add [eax],al
0000038F  0000              add [eax],al
00000391  0000              add [eax],al
00000393  0000              add [eax],al
00000395  0000              add [eax],al
00000397  0000              add [eax],al
00000399  0000              add [eax],al
0000039B  0000              add [eax],al
0000039D  0000              add [eax],al
0000039F  0000              add [eax],al
000003A1  0000              add [eax],al
000003A3  0000              add [eax],al
000003A5  0000              add [eax],al
000003A7  0000              add [eax],al
000003A9  0000              add [eax],al
000003AB  0000              add [eax],al
000003AD  0000              add [eax],al
000003AF  0000              add [eax],al
000003B1  0000              add [eax],al
000003B3  0000              add [eax],al
000003B5  0000              add [eax],al
000003B7  0000              add [eax],al
000003B9  0000              add [eax],al
000003BB  0000              add [eax],al
000003BD  0000              add [eax],al
000003BF  0000              add [eax],al
000003C1  0000              add [eax],al
000003C3  0000              add [eax],al
000003C5  0000              add [eax],al
000003C7  0000              add [eax],al
000003C9  0000              add [eax],al
000003CB  0000              add [eax],al
000003CD  0000              add [eax],al
000003CF  0000              add [eax],al
000003D1  0000              add [eax],al
000003D3  0000              add [eax],al
000003D5  0000              add [eax],al
000003D7  0000              add [eax],al
000003D9  0000              add [eax],al
000003DB  0000              add [eax],al
000003DD  0000              add [eax],al
000003DF  0000              add [eax],al
000003E1  0000              add [eax],al
000003E3  0000              add [eax],al
000003E5  0000              add [eax],al
000003E7  0000              add [eax],al
000003E9  0000              add [eax],al
000003EB  0000              add [eax],al
000003ED  0000              add [eax],al
000003EF  0000              add [eax],al
000003F1  0000              add [eax],al
000003F3  0000              add [eax],al
000003F5  0000              add [eax],al
000003F7  0000              add [eax],al
000003F9  0000              add [eax],al
000003FB  0000              add [eax],al
000003FD  0000              add [eax],al
000003FF  0000              add [eax],al
00000401  0000              add [eax],al
00000403  0000              add [eax],al
00000405  0000              add [eax],al
00000407  0000              add [eax],al
00000409  0000              add [eax],al
0000040B  0000              add [eax],al
0000040D  0000              add [eax],al
0000040F  0000              add [eax],al
00000411  0000              add [eax],al
00000413  0000              add [eax],al
00000415  0000              add [eax],al
00000417  0000              add [eax],al
00000419  0000              add [eax],al
0000041B  0000              add [eax],al
0000041D  0000              add [eax],al
0000041F  0000              add [eax],al
00000421  0000              add [eax],al
00000423  0000              add [eax],al
00000425  0000              add [eax],al
00000427  0000              add [eax],al
00000429  0000              add [eax],al
0000042B  0000              add [eax],al
0000042D  0000              add [eax],al
0000042F  0000              add [eax],al
00000431  0000              add [eax],al
00000433  0000              add [eax],al
00000435  0000              add [eax],al
00000437  0000              add [eax],al
00000439  0000              add [eax],al
0000043B  0000              add [eax],al
0000043D  0000              add [eax],al
0000043F  0000              add [eax],al
00000441  0000              add [eax],al
00000443  0000              add [eax],al
00000445  0000              add [eax],al
00000447  0000              add [eax],al
00000449  0000              add [eax],al
0000044B  0000              add [eax],al
0000044D  0000              add [eax],al
0000044F  0000              add [eax],al
00000451  0000              add [eax],al
00000453  0000              add [eax],al
00000455  0000              add [eax],al
00000457  0000              add [eax],al
00000459  0000              add [eax],al
0000045B  0000              add [eax],al
0000045D  0000              add [eax],al
0000045F  0000              add [eax],al
00000461  0000              add [eax],al
00000463  0000              add [eax],al
00000465  0000              add [eax],al
00000467  0000              add [eax],al
00000469  0000              add [eax],al
0000046B  0000              add [eax],al
0000046D  0000              add [eax],al
0000046F  0000              add [eax],al
00000471  0000              add [eax],al
00000473  0000              add [eax],al
00000475  0000              add [eax],al
00000477  0000              add [eax],al
00000479  0000              add [eax],al
0000047B  0000              add [eax],al
0000047D  0000              add [eax],al
0000047F  0000              add [eax],al
00000481  0000              add [eax],al
00000483  0000              add [eax],al
00000485  0000              add [eax],al
00000487  0000              add [eax],al
00000489  0000              add [eax],al
0000048B  0000              add [eax],al
0000048D  0000              add [eax],al
0000048F  0000              add [eax],al
00000491  0000              add [eax],al
00000493  0000              add [eax],al
00000495  0000              add [eax],al
00000497  0000              add [eax],al
00000499  0000              add [eax],al
0000049B  0000              add [eax],al
0000049D  0000              add [eax],al
0000049F  0000              add [eax],al
000004A1  0000              add [eax],al
000004A3  0000              add [eax],al
000004A5  0000              add [eax],al
000004A7  0000              add [eax],al
000004A9  0000              add [eax],al
000004AB  0000              add [eax],al
000004AD  0000              add [eax],al
000004AF  0000              add [eax],al
000004B1  0000              add [eax],al
000004B3  0000              add [eax],al
000004B5  0000              add [eax],al
000004B7  0000              add [eax],al
000004B9  0000              add [eax],al
000004BB  0000              add [eax],al
000004BD  0000              add [eax],al
000004BF  0000              add [eax],al
000004C1  0000              add [eax],al
000004C3  0000              add [eax],al
000004C5  0000              add [eax],al
000004C7  0000              add [eax],al
000004C9  0000              add [eax],al
000004CB  0000              add [eax],al
000004CD  0000              add [eax],al
000004CF  0000              add [eax],al
000004D1  0000              add [eax],al
000004D3  0000              add [eax],al
000004D5  0000              add [eax],al
000004D7  0000              add [eax],al
000004D9  0000              add [eax],al
000004DB  0000              add [eax],al
000004DD  0000              add [eax],al
000004DF  0000              add [eax],al
000004E1  0000              add [eax],al
000004E3  0000              add [eax],al
000004E5  0000              add [eax],al
000004E7  0000              add [eax],al
000004E9  0000              add [eax],al
000004EB  0000              add [eax],al
000004ED  0000              add [eax],al
000004EF  0000              add [eax],al
000004F1  0000              add [eax],al
000004F3  0000              add [eax],al
000004F5  0000              add [eax],al
000004F7  0000              add [eax],al
000004F9  0000              add [eax],al
000004FB  0000              add [eax],al
000004FD  0000              add [eax],al
000004FF  0000              add [eax],al
00000501  0000              add [eax],al
00000503  0000              add [eax],al
00000505  0000              add [eax],al
00000507  0000              add [eax],al
00000509  0000              add [eax],al
0000050B  0000              add [eax],al
0000050D  0000              add [eax],al
0000050F  0000              add [eax],al
00000511  0000              add [eax],al
00000513  0000              add [eax],al
00000515  0000              add [eax],al
00000517  0000              add [eax],al
00000519  0000              add [eax],al
0000051B  0000              add [eax],al
0000051D  0000              add [eax],al
0000051F  0000              add [eax],al
00000521  0000              add [eax],al
00000523  0000              add [eax],al
00000525  0000              add [eax],al
00000527  0000              add [eax],al
00000529  0000              add [eax],al
0000052B  0000              add [eax],al
0000052D  0000              add [eax],al
0000052F  0000              add [eax],al
00000531  0000              add [eax],al
00000533  0000              add [eax],al
00000535  0000              add [eax],al
00000537  0000              add [eax],al
00000539  0000              add [eax],al
0000053B  0000              add [eax],al
0000053D  0000              add [eax],al
0000053F  0000              add [eax],al
00000541  0000              add [eax],al
00000543  0000              add [eax],al
00000545  0000              add [eax],al
00000547  0000              add [eax],al
00000549  0000              add [eax],al
0000054B  0000              add [eax],al
0000054D  0000              add [eax],al
0000054F  0000              add [eax],al
00000551  0000              add [eax],al
00000553  0000              add [eax],al
00000555  0000              add [eax],al
00000557  0000              add [eax],al
00000559  0000              add [eax],al
0000055B  0000              add [eax],al
0000055D  0000              add [eax],al
0000055F  0000              add [eax],al
00000561  0000              add [eax],al
00000563  0000              add [eax],al
00000565  0000              add [eax],al
00000567  0000              add [eax],al
00000569  0000              add [eax],al
0000056B  0000              add [eax],al
0000056D  0000              add [eax],al
0000056F  0000              add [eax],al
00000571  0000              add [eax],al
00000573  0000              add [eax],al
00000575  0000              add [eax],al
00000577  0000              add [eax],al
00000579  0000              add [eax],al
0000057B  0000              add [eax],al
0000057D  0000              add [eax],al
0000057F  0000              add [eax],al
00000581  0000              add [eax],al
00000583  0000              add [eax],al
00000585  0000              add [eax],al
00000587  0000              add [eax],al
00000589  0000              add [eax],al
0000058B  0000              add [eax],al
0000058D  0000              add [eax],al
0000058F  0000              add [eax],al
00000591  0000              add [eax],al
00000593  0000              add [eax],al
00000595  0000              add [eax],al
00000597  0000              add [eax],al
00000599  0000              add [eax],al
0000059B  0000              add [eax],al
0000059D  0000              add [eax],al
0000059F  0000              add [eax],al
000005A1  0000              add [eax],al
000005A3  0000              add [eax],al
000005A5  0000              add [eax],al
000005A7  0000              add [eax],al
000005A9  0000              add [eax],al
000005AB  0000              add [eax],al
000005AD  0000              add [eax],al
000005AF  0000              add [eax],al
000005B1  0000              add [eax],al
000005B3  0000              add [eax],al
000005B5  0000              add [eax],al
000005B7  0000              add [eax],al
000005B9  0000              add [eax],al
000005BB  0000              add [eax],al
000005BD  0000              add [eax],al
000005BF  0000              add [eax],al
000005C1  0000              add [eax],al
000005C3  0000              add [eax],al
000005C5  0000              add [eax],al
000005C7  0000              add [eax],al
000005C9  0000              add [eax],al
000005CB  0000              add [eax],al
000005CD  0000              add [eax],al
000005CF  0000              add [eax],al
000005D1  0000              add [eax],al
000005D3  0000              add [eax],al
000005D5  0000              add [eax],al
000005D7  0000              add [eax],al
000005D9  0000              add [eax],al
000005DB  0000              add [eax],al
000005DD  0000              add [eax],al
000005DF  0000              add [eax],al
000005E1  0000              add [eax],al
000005E3  0000              add [eax],al
000005E5  0000              add [eax],al
000005E7  0000              add [eax],al
000005E9  0000              add [eax],al
000005EB  0000              add [eax],al
000005ED  0000              add [eax],al
000005EF  0000              add [eax],al
000005F1  0000              add [eax],al
000005F3  0000              add [eax],al
000005F5  0000              add [eax],al
000005F7  0000              add [eax],al
000005F9  0000              add [eax],al
000005FB  0000              add [eax],al
000005FD  0000              add [eax],al
000005FF  0000              add [eax],al
00000601  0000              add [eax],al
00000603  0000              add [eax],al
00000605  0000              add [eax],al
00000607  0000              add [eax],al
00000609  0000              add [eax],al
0000060B  0000              add [eax],al
0000060D  0000              add [eax],al
0000060F  0000              add [eax],al
00000611  0000              add [eax],al
00000613  0000              add [eax],al
00000615  0000              add [eax],al
00000617  0000              add [eax],al
00000619  0000              add [eax],al
0000061B  0000              add [eax],al
0000061D  0000              add [eax],al
0000061F  0000              add [eax],al
00000621  0000              add [eax],al
00000623  0000              add [eax],al
00000625  0000              add [eax],al
00000627  0000              add [eax],al
00000629  0000              add [eax],al
0000062B  0000              add [eax],al
0000062D  0000              add [eax],al
0000062F  0000              add [eax],al
00000631  0000              add [eax],al
00000633  0000              add [eax],al
00000635  0000              add [eax],al
00000637  0000              add [eax],al
00000639  0000              add [eax],al
0000063B  0000              add [eax],al
0000063D  0000              add [eax],al
0000063F  0000              add [eax],al
00000641  0000              add [eax],al
00000643  0000              add [eax],al
00000645  0000              add [eax],al
00000647  0000              add [eax],al
00000649  0000              add [eax],al
0000064B  0000              add [eax],al
0000064D  0000              add [eax],al
0000064F  0000              add [eax],al
00000651  0000              add [eax],al
00000653  0000              add [eax],al
00000655  0000              add [eax],al
00000657  0000              add [eax],al
00000659  0000              add [eax],al
0000065B  0000              add [eax],al
0000065D  0000              add [eax],al
0000065F  0000              add [eax],al
00000661  0000              add [eax],al
00000663  0000              add [eax],al
00000665  0000              add [eax],al
00000667  0000              add [eax],al
00000669  0000              add [eax],al
0000066B  0000              add [eax],al
0000066D  0000              add [eax],al
0000066F  0000              add [eax],al
00000671  0000              add [eax],al
00000673  0000              add [eax],al
00000675  0000              add [eax],al
00000677  0000              add [eax],al
00000679  0000              add [eax],al
0000067B  0000              add [eax],al
0000067D  0000              add [eax],al
0000067F  0000              add [eax],al
00000681  0000              add [eax],al
00000683  0000              add [eax],al
00000685  0000              add [eax],al
00000687  0000              add [eax],al
00000689  0000              add [eax],al
0000068B  0000              add [eax],al
0000068D  0000              add [eax],al
0000068F  0000              add [eax],al
00000691  0000              add [eax],al
00000693  0000              add [eax],al
00000695  0000              add [eax],al
00000697  0000              add [eax],al
00000699  0000              add [eax],al
0000069B  0000              add [eax],al
0000069D  0000              add [eax],al
0000069F  0000              add [eax],al
000006A1  0000              add [eax],al
000006A3  0000              add [eax],al
000006A5  0000              add [eax],al
000006A7  0000              add [eax],al
000006A9  0000              add [eax],al
000006AB  0000              add [eax],al
000006AD  0000              add [eax],al
000006AF  0000              add [eax],al
000006B1  0000              add [eax],al
000006B3  0000              add [eax],al
000006B5  0000              add [eax],al
000006B7  0000              add [eax],al
000006B9  0000              add [eax],al
000006BB  0000              add [eax],al
000006BD  0000              add [eax],al
000006BF  0000              add [eax],al
000006C1  0000              add [eax],al
000006C3  0000              add [eax],al
000006C5  0000              add [eax],al
000006C7  0000              add [eax],al
000006C9  0000              add [eax],al
000006CB  0000              add [eax],al
000006CD  0000              add [eax],al
000006CF  0000              add [eax],al
000006D1  0000              add [eax],al
000006D3  0000              add [eax],al
000006D5  0000              add [eax],al
000006D7  0000              add [eax],al
000006D9  0000              add [eax],al
000006DB  0000              add [eax],al
000006DD  0000              add [eax],al
000006DF  0000              add [eax],al
000006E1  0000              add [eax],al
000006E3  0000              add [eax],al
000006E5  0000              add [eax],al
000006E7  0000              add [eax],al
000006E9  0000              add [eax],al
000006EB  0000              add [eax],al
000006ED  0000              add [eax],al
000006EF  0000              add [eax],al
000006F1  0000              add [eax],al
000006F3  0000              add [eax],al
000006F5  0000              add [eax],al
000006F7  0000              add [eax],al
000006F9  0000              add [eax],al
000006FB  0000              add [eax],al
000006FD  0000              add [eax],al
000006FF  0000              add [eax],al
00000701  0000              add [eax],al
00000703  0000              add [eax],al
00000705  0000              add [eax],al
00000707  0000              add [eax],al
00000709  0000              add [eax],al
0000070B  0000              add [eax],al
0000070D  0000              add [eax],al
0000070F  0000              add [eax],al
00000711  0000              add [eax],al
00000713  0000              add [eax],al
00000715  0000              add [eax],al
00000717  0000              add [eax],al
00000719  0000              add [eax],al
0000071B  0000              add [eax],al
0000071D  0000              add [eax],al
0000071F  0000              add [eax],al
00000721  0000              add [eax],al
00000723  0000              add [eax],al
00000725  0000              add [eax],al
00000727  0000              add [eax],al
00000729  0000              add [eax],al
0000072B  0000              add [eax],al
0000072D  0000              add [eax],al
0000072F  0000              add [eax],al
00000731  0000              add [eax],al
00000733  0000              add [eax],al
00000735  0000              add [eax],al
00000737  0000              add [eax],al
00000739  0000              add [eax],al
0000073B  0000              add [eax],al
0000073D  0000              add [eax],al
0000073F  0000              add [eax],al
00000741  0000              add [eax],al
00000743  0000              add [eax],al
00000745  0000              add [eax],al
00000747  0000              add [eax],al
00000749  0000              add [eax],al
0000074B  0000              add [eax],al
0000074D  0000              add [eax],al
0000074F  0000              add [eax],al
00000751  0000              add [eax],al
00000753  0000              add [eax],al
00000755  0000              add [eax],al
00000757  0000              add [eax],al
00000759  0000              add [eax],al
0000075B  0000              add [eax],al
0000075D  0000              add [eax],al
0000075F  0000              add [eax],al
00000761  0000              add [eax],al
00000763  0000              add [eax],al
00000765  0000              add [eax],al
00000767  0000              add [eax],al
00000769  0000              add [eax],al
0000076B  0000              add [eax],al
0000076D  0000              add [eax],al
0000076F  0000              add [eax],al
00000771  0000              add [eax],al
00000773  0000              add [eax],al
00000775  0000              add [eax],al
00000777  0000              add [eax],al
00000779  0000              add [eax],al
0000077B  0000              add [eax],al
0000077D  0000              add [eax],al
0000077F  0000              add [eax],al
00000781  0000              add [eax],al
00000783  0000              add [eax],al
00000785  0000              add [eax],al
00000787  0000              add [eax],al
00000789  0000              add [eax],al
0000078B  0000              add [eax],al
0000078D  0000              add [eax],al
0000078F  0000              add [eax],al
00000791  0000              add [eax],al
00000793  0000              add [eax],al
00000795  0000              add [eax],al
00000797  0000              add [eax],al
00000799  0000              add [eax],al
0000079B  0000              add [eax],al
0000079D  0000              add [eax],al
0000079F  0000              add [eax],al
000007A1  0000              add [eax],al
000007A3  0000              add [eax],al
000007A5  0000              add [eax],al
000007A7  0000              add [eax],al
000007A9  0000              add [eax],al
000007AB  0000              add [eax],al
000007AD  0000              add [eax],al
000007AF  0000              add [eax],al
000007B1  0000              add [eax],al
000007B3  0000              add [eax],al
000007B5  0000              add [eax],al
000007B7  0000              add [eax],al
000007B9  0000              add [eax],al
000007BB  0000              add [eax],al
000007BD  0000              add [eax],al
000007BF  0000              add [eax],al
000007C1  0000              add [eax],al
000007C3  0000              add [eax],al
000007C5  0000              add [eax],al
000007C7  0000              add [eax],al
000007C9  0000              add [eax],al
000007CB  0000              add [eax],al
000007CD  0000              add [eax],al
000007CF  0000              add [eax],al
000007D1  0000              add [eax],al
000007D3  0000              add [eax],al
000007D5  0000              add [eax],al
000007D7  0000              add [eax],al
000007D9  0000              add [eax],al
000007DB  0000              add [eax],al
000007DD  0000              add [eax],al
000007DF  0000              add [eax],al
000007E1  0000              add [eax],al
000007E3  0000              add [eax],al
000007E5  0000              add [eax],al
000007E7  0000              add [eax],al
000007E9  0000              add [eax],al
000007EB  0000              add [eax],al
000007ED  0000              add [eax],al
000007EF  0000              add [eax],al
000007F1  0000              add [eax],al
000007F3  0000              add [eax],al
000007F5  0000              add [eax],al
000007F7  0000              add [eax],al
000007F9  0000              add [eax],al
000007FB  0000              add [eax],al
000007FD  0000              add [eax],al
000007FF  0000              add [eax],al
00000801  0000              add [eax],al
00000803  0000              add [eax],al
00000805  0000              add [eax],al
00000807  0000              add [eax],al
00000809  0000              add [eax],al
0000080B  0000              add [eax],al
0000080D  0000              add [eax],al
0000080F  0000              add [eax],al
00000811  0000              add [eax],al
00000813  0000              add [eax],al
00000815  0000              add [eax],al
00000817  0000              add [eax],al
00000819  0000              add [eax],al
0000081B  0000              add [eax],al
0000081D  0000              add [eax],al
0000081F  0000              add [eax],al
00000821  0000              add [eax],al
00000823  0000              add [eax],al
00000825  0000              add [eax],al
00000827  0000              add [eax],al
00000829  0000              add [eax],al
0000082B  0000              add [eax],al
0000082D  0000              add [eax],al
0000082F  0000              add [eax],al
00000831  0000              add [eax],al
00000833  0000              add [eax],al
00000835  0000              add [eax],al
00000837  0000              add [eax],al
00000839  0000              add [eax],al
0000083B  0000              add [eax],al
0000083D  0000              add [eax],al
0000083F  0000              add [eax],al
00000841  0000              add [eax],al
00000843  0000              add [eax],al
00000845  0000              add [eax],al
00000847  0000              add [eax],al
00000849  0000              add [eax],al
0000084B  0000              add [eax],al
0000084D  0000              add [eax],al
0000084F  0000              add [eax],al
00000851  0000              add [eax],al
00000853  0000              add [eax],al
00000855  0000              add [eax],al
00000857  0000              add [eax],al
00000859  0000              add [eax],al
0000085B  0000              add [eax],al
0000085D  0000              add [eax],al
0000085F  0000              add [eax],al
00000861  0000              add [eax],al
00000863  0000              add [eax],al
00000865  0000              add [eax],al
00000867  0000              add [eax],al
00000869  0000              add [eax],al
0000086B  0000              add [eax],al
0000086D  0000              add [eax],al
0000086F  0000              add [eax],al
00000871  0000              add [eax],al
00000873  0000              add [eax],al
00000875  0000              add [eax],al
00000877  0000              add [eax],al
00000879  0000              add [eax],al
0000087B  0000              add [eax],al
0000087D  0000              add [eax],al
0000087F  0000              add [eax],al
00000881  0000              add [eax],al
00000883  0000              add [eax],al
00000885  0000              add [eax],al
00000887  0000              add [eax],al
00000889  0000              add [eax],al
0000088B  0000              add [eax],al
0000088D  0000              add [eax],al
0000088F  0000              add [eax],al
00000891  0000              add [eax],al
00000893  0000              add [eax],al
00000895  0000              add [eax],al
00000897  0000              add [eax],al
00000899  0000              add [eax],al
0000089B  0000              add [eax],al
0000089D  0000              add [eax],al
0000089F  0000              add [eax],al
000008A1  0000              add [eax],al
000008A3  0000              add [eax],al
000008A5  0000              add [eax],al
000008A7  0000              add [eax],al
000008A9  0000              add [eax],al
000008AB  0000              add [eax],al
000008AD  0000              add [eax],al
000008AF  0000              add [eax],al
000008B1  0000              add [eax],al
000008B3  0000              add [eax],al
000008B5  0000              add [eax],al
000008B7  0000              add [eax],al
000008B9  0000              add [eax],al
000008BB  0000              add [eax],al
000008BD  0000              add [eax],al
000008BF  0000              add [eax],al
000008C1  0000              add [eax],al
000008C3  0000              add [eax],al
000008C5  0000              add [eax],al
000008C7  0000              add [eax],al
000008C9  0000              add [eax],al
000008CB  0000              add [eax],al
000008CD  0000              add [eax],al
000008CF  0000              add [eax],al
000008D1  0000              add [eax],al
000008D3  0000              add [eax],al
000008D5  0000              add [eax],al
000008D7  0000              add [eax],al
000008D9  0000              add [eax],al
000008DB  0000              add [eax],al
000008DD  0000              add [eax],al
000008DF  0000              add [eax],al
000008E1  0000              add [eax],al
000008E3  0000              add [eax],al
000008E5  0000              add [eax],al
000008E7  0000              add [eax],al
000008E9  0000              add [eax],al
000008EB  0000              add [eax],al
000008ED  0000              add [eax],al
000008EF  0000              add [eax],al
000008F1  0000              add [eax],al
000008F3  0000              add [eax],al
000008F5  0000              add [eax],al
000008F7  0000              add [eax],al
000008F9  0000              add [eax],al
000008FB  0000              add [eax],al
000008FD  0000              add [eax],al
000008FF  0000              add [eax],al
00000901  0000              add [eax],al
00000903  0000              add [eax],al
00000905  0000              add [eax],al
00000907  0000              add [eax],al
00000909  0000              add [eax],al
0000090B  0000              add [eax],al
0000090D  0000              add [eax],al
0000090F  0000              add [eax],al
00000911  0000              add [eax],al
00000913  0000              add [eax],al
00000915  0000              add [eax],al
00000917  0000              add [eax],al
00000919  0000              add [eax],al
0000091B  0000              add [eax],al
0000091D  0000              add [eax],al
0000091F  0000              add [eax],al
00000921  0000              add [eax],al
00000923  0000              add [eax],al
00000925  0000              add [eax],al
00000927  0000              add [eax],al
00000929  0000              add [eax],al
0000092B  0000              add [eax],al
0000092D  0000              add [eax],al
0000092F  0000              add [eax],al
00000931  0000              add [eax],al
00000933  0000              add [eax],al
00000935  0000              add [eax],al
00000937  0000              add [eax],al
00000939  0000              add [eax],al
0000093B  0000              add [eax],al
0000093D  0000              add [eax],al
0000093F  0000              add [eax],al
00000941  0000              add [eax],al
00000943  0000              add [eax],al
00000945  0000              add [eax],al
00000947  0000              add [eax],al
00000949  0000              add [eax],al
0000094B  0000              add [eax],al
0000094D  0000              add [eax],al
0000094F  0000              add [eax],al
00000951  0000              add [eax],al
00000953  0000              add [eax],al
00000955  0000              add [eax],al
00000957  0000              add [eax],al
00000959  0000              add [eax],al
0000095B  0000              add [eax],al
0000095D  0000              add [eax],al
0000095F  0000              add [eax],al
00000961  0000              add [eax],al
00000963  0000              add [eax],al
00000965  0000              add [eax],al
00000967  0000              add [eax],al
00000969  0000              add [eax],al
0000096B  0000              add [eax],al
0000096D  0000              add [eax],al
0000096F  0000              add [eax],al
00000971  0000              add [eax],al
00000973  0000              add [eax],al
00000975  0000              add [eax],al
00000977  0000              add [eax],al
00000979  0000              add [eax],al
0000097B  0000              add [eax],al
0000097D  0000              add [eax],al
0000097F  0000              add [eax],al
00000981  0000              add [eax],al
00000983  0000              add [eax],al
00000985  0000              add [eax],al
00000987  0000              add [eax],al
00000989  0000              add [eax],al
0000098B  0000              add [eax],al
0000098D  0000              add [eax],al
0000098F  0000              add [eax],al
00000991  0000              add [eax],al
00000993  0000              add [eax],al
00000995  0000              add [eax],al
00000997  0000              add [eax],al
00000999  0000              add [eax],al
0000099B  0000              add [eax],al
0000099D  0000              add [eax],al
0000099F  0000              add [eax],al
000009A1  0000              add [eax],al
000009A3  0000              add [eax],al
000009A5  0000              add [eax],al
000009A7  0000              add [eax],al
000009A9  0000              add [eax],al
000009AB  0000              add [eax],al
000009AD  0000              add [eax],al
000009AF  0000              add [eax],al
000009B1  0000              add [eax],al
000009B3  0000              add [eax],al
000009B5  0000              add [eax],al
000009B7  0000              add [eax],al
000009B9  0000              add [eax],al
000009BB  0000              add [eax],al
000009BD  0000              add [eax],al
000009BF  0000              add [eax],al
000009C1  0000              add [eax],al
000009C3  0000              add [eax],al
000009C5  0000              add [eax],al
000009C7  0000              add [eax],al
000009C9  0000              add [eax],al
000009CB  0000              add [eax],al
000009CD  0000              add [eax],al
000009CF  0000              add [eax],al
000009D1  0000              add [eax],al
000009D3  0000              add [eax],al
000009D5  0000              add [eax],al
000009D7  0000              add [eax],al
000009D9  0000              add [eax],al
000009DB  0000              add [eax],al
000009DD  0000              add [eax],al
000009DF  0000              add [eax],al
000009E1  0000              add [eax],al
000009E3  0000              add [eax],al
000009E5  0000              add [eax],al
000009E7  0000              add [eax],al
000009E9  0000              add [eax],al
000009EB  0000              add [eax],al
000009ED  0000              add [eax],al
000009EF  0000              add [eax],al
000009F1  0000              add [eax],al
000009F3  0000              add [eax],al
000009F5  0000              add [eax],al
000009F7  0000              add [eax],al
000009F9  0000              add [eax],al
000009FB  0000              add [eax],al
000009FD  0000              add [eax],al
000009FF  0000              add [eax],al
00000A01  0000              add [eax],al
00000A03  0000              add [eax],al
00000A05  0000              add [eax],al
00000A07  0000              add [eax],al
00000A09  0000              add [eax],al
00000A0B  0000              add [eax],al
00000A0D  0000              add [eax],al
00000A0F  0000              add [eax],al
00000A11  0000              add [eax],al
00000A13  0000              add [eax],al
00000A15  0000              add [eax],al
00000A17  0000              add [eax],al
00000A19  0000              add [eax],al
00000A1B  0000              add [eax],al
00000A1D  0000              add [eax],al
00000A1F  0000              add [eax],al
00000A21  0000              add [eax],al
00000A23  0000              add [eax],al
00000A25  0000              add [eax],al
00000A27  0000              add [eax],al
00000A29  0000              add [eax],al
00000A2B  0000              add [eax],al
00000A2D  0000              add [eax],al
00000A2F  0000              add [eax],al
00000A31  0000              add [eax],al
00000A33  0000              add [eax],al
00000A35  0000              add [eax],al
00000A37  0000              add [eax],al
00000A39  0000              add [eax],al
00000A3B  0000              add [eax],al
00000A3D  0000              add [eax],al
00000A3F  0000              add [eax],al
00000A41  0000              add [eax],al
00000A43  0000              add [eax],al
00000A45  0000              add [eax],al
00000A47  0000              add [eax],al
00000A49  0000              add [eax],al
00000A4B  0000              add [eax],al
00000A4D  0000              add [eax],al
00000A4F  0000              add [eax],al
00000A51  0000              add [eax],al
00000A53  0000              add [eax],al
00000A55  0000              add [eax],al
00000A57  0000              add [eax],al
00000A59  0000              add [eax],al
00000A5B  0000              add [eax],al
00000A5D  0000              add [eax],al
00000A5F  0000              add [eax],al
00000A61  0000              add [eax],al
00000A63  0000              add [eax],al
00000A65  0000              add [eax],al
00000A67  0000              add [eax],al
00000A69  0000              add [eax],al
00000A6B  0000              add [eax],al
00000A6D  0000              add [eax],al
00000A6F  0000              add [eax],al
00000A71  0000              add [eax],al
00000A73  0000              add [eax],al
00000A75  0000              add [eax],al
00000A77  0000              add [eax],al
00000A79  0000              add [eax],al
00000A7B  0000              add [eax],al
00000A7D  0000              add [eax],al
00000A7F  0000              add [eax],al
00000A81  0000              add [eax],al
00000A83  0000              add [eax],al
00000A85  0000              add [eax],al
00000A87  0000              add [eax],al
00000A89  0000              add [eax],al
00000A8B  0000              add [eax],al
00000A8D  0000              add [eax],al
00000A8F  0000              add [eax],al
00000A91  0000              add [eax],al
00000A93  0000              add [eax],al
00000A95  0000              add [eax],al
00000A97  0000              add [eax],al
00000A99  0000              add [eax],al
00000A9B  0000              add [eax],al
00000A9D  0000              add [eax],al
00000A9F  0000              add [eax],al
00000AA1  0000              add [eax],al
00000AA3  0000              add [eax],al
00000AA5  0000              add [eax],al
00000AA7  0000              add [eax],al
00000AA9  0000              add [eax],al
00000AAB  0000              add [eax],al
00000AAD  0000              add [eax],al
00000AAF  0000              add [eax],al
00000AB1  0000              add [eax],al
00000AB3  0000              add [eax],al
00000AB5  0000              add [eax],al
00000AB7  0000              add [eax],al
00000AB9  0000              add [eax],al
00000ABB  0000              add [eax],al
00000ABD  0000              add [eax],al
00000ABF  0000              add [eax],al
00000AC1  0000              add [eax],al
00000AC3  0000              add [eax],al
00000AC5  0000              add [eax],al
00000AC7  0000              add [eax],al
00000AC9  0000              add [eax],al
00000ACB  0000              add [eax],al
00000ACD  0000              add [eax],al
00000ACF  0000              add [eax],al
00000AD1  0000              add [eax],al
00000AD3  0000              add [eax],al
00000AD5  0000              add [eax],al
00000AD7  0000              add [eax],al
00000AD9  006650            add [esi+0x50],ah
00000ADC  B011              mov al,0x11
00000ADE  E620              out 0x20,al
00000AE0  E874040000        call dword 0xf59
00000AE5  B011              mov al,0x11
00000AE7  E6A0              out 0xa0,al
00000AE9  E86B040000        call dword 0xf59
00000AEE  B0F0              mov al,0xf0
00000AF0  E621              out 0x21,al
00000AF2  E862040000        call dword 0xf59
00000AF7  B0F8              mov al,0xf8
00000AF9  E6A1              out 0xa1,al
00000AFB  E859040000        call dword 0xf59
00000B00  B004              mov al,0x4
00000B02  E621              out 0x21,al
00000B04  E850040000        call dword 0xf59
00000B09  B002              mov al,0x2
00000B0B  E6A1              out 0xa1,al
00000B0D  E847040000        call dword 0xf59
00000B12  B001              mov al,0x1
00000B14  E621              out 0x21,al
00000B16  E83E040000        call dword 0xf59
00000B1B  B001              mov al,0x1
00000B1D  E6A1              out 0xa1,al
00000B1F  E835040000        call dword 0xf59
00000B24  B0FF              mov al,0xff
00000B26  E621              out 0x21,al
00000B28  E82C040000        call dword 0xf59
00000B2D  B0FF              mov al,0xff
00000B2F  E6A1              out 0xa1,al
00000B31  E823040000        call dword 0xf59
00000B36  6658              pop ax
00000B38  C3                ret
00000B39  66B80100          mov ax,0x1
00000B3D  BB2C0C1000        mov ebx,0x100c2c
00000B42  E82EF7FFFF        call dword 0x275
00000B47  66B80200          mov ax,0x2
00000B4B  BB390C1000        mov ebx,0x100c39
00000B50  E820F7FFFF        call dword 0x275
00000B55  66B80300          mov ax,0x3
00000B59  BB460C1000        mov ebx,0x100c46
00000B5E  E812F7FFFF        call dword 0x275
00000B63  66B80400          mov ax,0x4
00000B67  BB530C1000        mov ebx,0x100c53
00000B6C  E804F7FFFF        call dword 0x275
00000B71  66B80500          mov ax,0x5
00000B75  BB600C1000        mov ebx,0x100c60
00000B7A  E8F6F6FFFF        call dword 0x275
00000B7F  66B80600          mov ax,0x6
00000B83  BB6D0C1000        mov ebx,0x100c6d
00000B88  E8E8F6FFFF        call dword 0x275
00000B8D  66B80700          mov ax,0x7
00000B91  BB7A0C1000        mov ebx,0x100c7a
00000B96  E8DAF6FFFF        call dword 0x275
00000B9B  66B80800          mov ax,0x8
00000B9F  BB870C1000        mov ebx,0x100c87
00000BA4  E8CCF6FFFF        call dword 0x275
00000BA9  66B80900          mov ax,0x9
00000BAD  BB9A0C1000        mov ebx,0x100c9a
00000BB2  E8BEF6FFFF        call dword 0x275
00000BB7  66B80A00          mov ax,0xa
00000BBB  BBA70C1000        mov ebx,0x100ca7
00000BC0  E8B0F6FFFF        call dword 0x275
00000BC5  66B80B00          mov ax,0xb
00000BC9  BBBA0C1000        mov ebx,0x100cba
00000BCE  E8A2F6FFFF        call dword 0x275
00000BD3  66B80C00          mov ax,0xc
00000BD7  BBCD0C1000        mov ebx,0x100ccd
00000BDC  E894F6FFFF        call dword 0x275
00000BE1  66B80D00          mov ax,0xd
00000BE5  BBE00C1000        mov ebx,0x100ce0
00000BEA  E886F6FFFF        call dword 0x275
00000BEF  66B80E00          mov ax,0xe
00000BF3  BBF30C1000        mov ebx,0x100cf3
00000BF8  E878F6FFFF        call dword 0x275
00000BFD  66B81000          mov ax,0x10
00000C01  BB060D1000        mov ebx,0x100d06
00000C06  E86AF6FFFF        call dword 0x275
00000C0B  C3                ret
00000C0C  56                push esi
00000C0D  BE2B0D1000        mov esi,0x100d2b
00000C12  E8C1F4FFFF        call dword 0xd8
00000C17  5E                pop esi
00000C18  CF                iretd
00000C19  56                push esi
00000C1A  BE530D1000        mov esi,0x100d53
00000C1F  E8B4F4FFFF        call dword 0xd8
00000C24  5E                pop esi
00000C25  CF                iretd
00000C26  56                push esi
00000C27  BE7A0D1000        mov esi,0x100d7a
00000C2C  E8A7F4FFFF        call dword 0xd8
00000C31  5E                pop esi
00000C32  CF                iretd
00000C33  56                push esi
00000C34  BE990D1000        mov esi,0x100d99
00000C39  E89AF4FFFF        call dword 0xd8
00000C3E  5E                pop esi
00000C3F  CF                iretd
00000C40  56                push esi
00000C41  BEBD0D1000        mov esi,0x100dbd
00000C46  E88DF4FFFF        call dword 0xd8
00000C4B  5E                pop esi
00000C4C  CF                iretd
00000C4D  56                push esi
00000C4E  BEEC0D1000        mov esi,0x100dec
00000C53  E880F4FFFF        call dword 0xd8
00000C58  5E                pop esi
00000C59  CF                iretd
00000C5A  56                push esi
00000C5B  BE160E1000        mov esi,0x100e16
00000C60  E873F4FFFF        call dword 0xd8
00000C65  5E                pop esi
00000C66  CF                iretd
00000C67  8F05130D1000      pop dword [dword 0x100d13]
00000C6D  56                push esi
00000C6E  BE450E1000        mov esi,0x100e45
00000C73  E860F4FFFF        call dword 0xd8
00000C78  5E                pop esi
00000C79  CF                iretd
00000C7A  56                push esi
00000C7B  BE620E1000        mov esi,0x100e62
00000C80  E853F4FFFF        call dword 0xd8
00000C85  5E                pop esi
00000C86  CF                iretd
00000C87  8F05170D1000      pop dword [dword 0x100d17]
00000C8D  56                push esi
00000C8E  BE980E1000        mov esi,0x100e98
00000C93  E840F4FFFF        call dword 0xd8
00000C98  5E                pop esi
00000C99  CF                iretd
00000C9A  8F051B0D1000      pop dword [dword 0x100d1b]
00000CA0  56                push esi
00000CA1  BEBA0E1000        mov esi,0x100eba
00000CA6  E82DF4FFFF        call dword 0xd8
00000CAB  5E                pop esi
00000CAC  CF                iretd
00000CAD  8F051F0D1000      pop dword [dword 0x100d1f]
00000CB3  56                push esi
00000CB4  BEE80E1000        mov esi,0x100ee8
00000CB9  E81AF4FFFF        call dword 0xd8
00000CBE  5E                pop esi
00000CBF  CF                iretd
00000CC0  8F05230D1000      pop dword [dword 0x100d23]
00000CC6  56                push esi
00000CC7  BE0C0F1000        mov esi,0x100f0c
00000CCC  E807F4FFFF        call dword 0xd8
00000CD1  5E                pop esi
00000CD2  CF                iretd
00000CD3  8F05270D1000      pop dword [dword 0x100d27]
00000CD9  56                push esi
00000CDA  BE350F1000        mov esi,0x100f35
00000CDF  E8F4F3FFFF        call dword 0xd8
00000CE4  5E                pop esi
00000CE5  CF                iretd
00000CE6  56                push esi
00000CE7  BE500F1000        mov esi,0x100f50
00000CEC  E8E7F3FFFF        call dword 0xd8
00000CF1  5E                pop esi
00000CF2  CF                iretd
00000CF3  0000              add [eax],al
00000CF5  0000              add [eax],al
00000CF7  0000              add [eax],al
00000CF9  0000              add [eax],al
00000CFB  0000              add [eax],al
00000CFD  0000              add [eax],al
00000CFF  0000              add [eax],al
00000D01  0000              add [eax],al
00000D03  0000              add [eax],al
00000D05  0000              add [eax],al
00000D07  0000              add [eax],al
00000D09  0000              add [eax],al
00000D0B  41                inc ecx
00000D0C  20646976          and [ecx+ebp*2+0x76],ah
00000D10  6973696F6E2062    imul esi,[ebx+0x69],dword 0x62206e6f
00000D17  7920              jns 0xd39
00000D19  3020              xor [eax],ah
00000D1B  657863            gs js 0xd81
00000D1E  657074            gs jo 0xd95
00000D21  696F6E20686173    imul ebp,[edi+0x6e],dword 0x73616820
00000D28  206F63            and [edi+0x63],ch
00000D2B  637572            arpl [ebp+0x72],si
00000D2E  6564210A          and [fs:edx],ecx
00000D32  004120            add [ecx+0x20],al
00000D35  4E                dec esi
00000D36  6F                outsd
00000D37  6E                outsb
00000D38  2D4D61736B        sub eax,0x6b73614d
00000D3D  61                popad
00000D3E  626C6520          bound ebp,[ebp+0x20]
00000D42  49                dec ecx
00000D43  6E                outsb
00000D44  7465              jz 0xdab
00000D46  7272              jc 0xdba
00000D48  7570              jnz 0xdba
00000D4A  7420              jz 0xd6c
00000D4C  686173206F        push dword 0x6f207361
00000D51  636375            arpl [ebx+0x75],sp
00000D54  7265              jc 0xdbb
00000D56  64210A            and [fs:edx],ecx
00000D59  004120            add [ecx+0x20],al
00000D5C  62                db 0x62
00000D5D  7265              jc 0xdc4
00000D5F  61                popad
00000D60  6B706F69          imul esi,[eax+0x6f],byte +0x69
00000D64  6E                outsb
00000D65  7420              jz 0xd87
00000D67  7761              ja 0xdca
00000D69  7320              jnc 0xd8b
00000D6B  656E              gs outsb
00000D6D  636F75            arpl [edi+0x75],bp
00000D70  6E                outsb
00000D71  7465              jz 0xdd8
00000D73  7265              jc 0xdda
00000D75  64210A            and [fs:edx],ecx
00000D78  00416E            add [ecx+0x6e],al
00000D7B  206F76            and [edi+0x76],ch
00000D7E  657266            gs jc 0xde7
00000D81  6C                insb
00000D82  6F                outsd
00000D83  7720              ja 0xda5
00000D85  657863            gs js 0xdeb
00000D88  657074            gs jo 0xdff
00000D8B  696F6E20686173    imul ebp,[edi+0x6e],dword 0x73616820
00000D92  206F63            and [edi+0x63],ch
00000D95  637572            arpl [ebp+0x72],si
00000D98  6564210A          and [fs:edx],ecx
00000D9C  004120            add [ecx+0x20],al
00000D9F  626F75            bound ebp,[edi+0x75]
00000DA2  6E                outsb
00000DA3  64207261          and [fs:edx+0x61],dh
00000DA7  6E                outsb
00000DA8  6765206578        and [gs:di+0x78],ah
00000DAD  636565            arpl [ebp+0x65],sp
00000DB0  646564206578      and [fs:ebp+0x78],ah
00000DB6  636570            arpl [ebp+0x70],sp
00000DB9  7469              jz 0xe24
00000DBB  6F                outsd
00000DBC  6E                outsb
00000DBD  206861            and [eax+0x61],ch
00000DC0  7320              jnc 0xde2
00000DC2  6F                outsd
00000DC3  636375            arpl [ebx+0x75],sp
00000DC6  7265              jc 0xe2d
00000DC8  64210A            and [fs:edx],ecx
00000DCB  00416E            add [ecx+0x6e],al
00000DCE  20696E            and [ecx+0x6e],ch
00000DD1  7661              jna 0xe34
00000DD3  6C                insb
00000DD4  6964206F70636F64  imul esp,[eax+0x6f],dword 0x646f6370
00000DDC  65206578          and [gs:ebp+0x78],ah
00000DE0  636570            arpl [ebp+0x70],sp
00000DE3  7469              jz 0xe4e
00000DE5  6F                outsd
00000DE6  6E                outsb
00000DE7  206861            and [eax+0x61],ch
00000DEA  7320              jnc 0xe0c
00000DEC  6F                outsd
00000DED  636375            arpl [ebx+0x75],sp
00000DF0  7265              jc 0xe57
00000DF2  64210A            and [fs:edx],ecx
00000DF5  004120            add [ecx+0x20],al
00000DF8  64657669          gs jna 0xe65
00000DFC  636520            arpl [ebp+0x20],sp
00000DFF  6E                outsb
00000E00  6F                outsd
00000E01  7420              jz 0xe23
00000E03  61                popad
00000E04  7661              jna 0xe67
00000E06  696C61626C652065  imul ebp,[ecx+0x62],dword 0x6520656c
00000E0E  7863              js 0xe73
00000E10  657074            gs jo 0xe87
00000E13  696F6E20686173    imul ebp,[edi+0x6e],dword 0x73616820
00000E1A  206F63            and [edi+0x63],ch
00000E1D  637572            arpl [ebp+0x72],si
00000E20  6564210A          and [fs:edx],ecx
00000E24  004120            add [ecx+0x20],al
00000E27  646F              fs outsd
00000E29  7562              jnz 0xe8d
00000E2B  6C                insb
00000E2C  65206661          and [gs:esi+0x61],ah
00000E30  756C              jnz 0xe9e
00000E32  7420              jz 0xe54
00000E34  686173206F        push dword 0x6f207361
00000E39  636375            arpl [ebx+0x75],sp
00000E3C  7265              jc 0xea3
00000E3E  64210A            and [fs:edx],ecx
00000E41  004120            add [ecx+0x20],al
00000E44  43                inc ebx
00000E45  6F                outsd
00000E46  7072              jo 0xeba
00000E48  6F                outsd
00000E49  636573            arpl [ebp+0x73],sp
00000E4C  736F              jnc 0xebd
00000E4E  7220              jc 0xe70
00000E50  53                push ebx
00000E51  65676D            gs a16 insd
00000E54  656E              gs outsb
00000E56  7420              jz 0xe78
00000E58  4F                dec edi
00000E59  7665              jna 0xec0
00000E5B  7272              jc 0xecf
00000E5D  756E              jnz 0xecd
00000E5F  206578            and [ebp+0x78],ah
00000E62  636570            arpl [ebp+0x70],sp
00000E65  7469              jz 0xed0
00000E67  6F                outsd
00000E68  6E                outsb
00000E69  206861            and [eax+0x61],ch
00000E6C  7320              jnc 0xe8e
00000E6E  6F                outsd
00000E6F  636375            arpl [ebx+0x75],sp
00000E72  7265              jc 0xed9
00000E74  64210A            and [fs:edx],ecx
00000E77  004974            add [ecx+0x74],cl
00000E7A  206170            and [ecx+0x70],ah
00000E7D  7065              jo 0xee4
00000E7F  61                popad
00000E80  7273              jc 0xef5
00000E82  20796F            and [ecx+0x6f],bh
00000E85  7520              jnz 0xea7
00000E87  6861766520        push dword 0x20657661
00000E8C  61                popad
00000E8D  6E                outsb
00000E8E  20696E            and [ecx+0x6e],ch
00000E91  7661              jna 0xef4
00000E93  6C                insb
00000E94  6964205453534120  imul esp,[eax+0x54],dword 0x20415353
00000E9C  7365              jnc 0xf03
00000E9E  676D              a16 insd
00000EA0  656E              gs outsb
00000EA2  7420              jz 0xec4
00000EA4  6E                outsb
00000EA5  6F                outsd
00000EA6  7420              jz 0xec8
00000EA8  7072              jo 0xf1c
00000EAA  657365            gs jnc 0xf12
00000EAD  6E                outsb
00000EAE  7420              jz 0xed0
00000EB0  657863            gs js 0xf16
00000EB3  657074            gs jo 0xf2a
00000EB6  696F6E20686173    imul ebp,[edi+0x6e],dword 0x73616820
00000EBD  206F63            and [edi+0x63],ch
00000EC0  637572            arpl [ebp+0x72],si
00000EC3  6564210A          and [fs:edx],ecx
00000EC7  004120            add [ecx+0x20],al
00000ECA  7374              jnc 0xf40
00000ECC  61                popad
00000ECD  636B20            arpl [ebx+0x20],bp
00000ED0  7365              jnc 0xf37
00000ED2  676D              a16 insd
00000ED4  656E              gs outsb
00000ED6  7420              jz 0xef8
00000ED8  6661              popaw
00000EDA  756C              jnz 0xf48
00000EDC  7420              jz 0xefe
00000EDE  686173206F        push dword 0x6f207361
00000EE3  636375            arpl [ebx+0x75],sp
00000EE6  7265              jc 0xf4d
00000EE8  64210A            and [fs:edx],ecx
00000EEB  004120            add [ecx+0x20],al
00000EEE  47                inc edi
00000EEF  656E              gs outsb
00000EF1  657261            gs jc 0xf55
00000EF4  6C                insb
00000EF5  205072            and [eax+0x72],dl
00000EF8  6F                outsd
00000EF9  7465              jz 0xf60
00000EFB  6374696F          arpl [ecx+ebp*2+0x6f],si
00000EFF  6E                outsb
00000F00  204661            and [esi+0x61],al
00000F03  756C              jnz 0xf71
00000F05  7420              jz 0xf27
00000F07  686173206F        push dword 0x6f207361
00000F0C  636375            arpl [ebx+0x75],sp
00000F0F  7265              jc 0xf76
00000F11  64210A            and [fs:edx],ecx
00000F14  004120            add [ecx+0x20],al
00000F17  50                push eax
00000F18  61                popad
00000F19  6765204661        and [gs:bp+0x61],al
00000F1E  756C              jnz 0xf8c
00000F20  7420              jz 0xf42
00000F22  686173206F        push dword 0x6f207361
00000F27  636375            arpl [ebx+0x75],sp
00000F2A  7265              jc 0xf91
00000F2C  64210A            and [fs:edx],ecx
00000F2F  004120            add [ecx+0x20],al
00000F32  666C              o16 insb
00000F34  6F                outsd
00000F35  61                popad
00000F36  7469              jz 0xfa1
00000F38  6E                outsb
00000F39  6720706F          and [bx+si+0x6f],dh
00000F3D  696E7420657863    imul ebp,[esi+0x74],dword 0x63786520
00000F44  657074            gs jo 0xfbb
00000F47  696F6E20686173    imul ebp,[edi+0x6e],dword 0x73616820
00000F4E  206F63            and [edi+0x63],ch
00000F51  637572            arpl [ebp+0x72],si
00000F54  6564210A          and [fs:edx],ecx
00000F58  00C3              add bl,al
00000F5A  57                push edi
00000F5B  656C              gs insb
00000F5D  636F6D            arpl [edi+0x6d],bp
00000F60  6520746F20        and [gs:edi+ebp*2+0x20],dh
00000F65  46                inc esi
00000F66  53                push ebx
00000F67  41                inc ecx
00000F68  4F                dec edi
00000F69  53                push ebx
00000F6A  210A              and [edx],ecx
00000F6C  0000              add [eax],al
00000F6E  0000              add [eax],al
00000F70  0000              add [eax],al
00000F72  0000              add [eax],al
00000F74  0000              add [eax],al
00000F76  0000              add [eax],al
00000F78  0000              add [eax],al
00000F7A  0000              add [eax],al
00000F7C  0000              add [eax],al
00000F7E  0000              add [eax],al
00000F80  0000              add [eax],al
00000F82  0000              add [eax],al
00000F84  0000              add [eax],al
00000F86  0000              add [eax],al
00000F88  0000              add [eax],al
00000F8A  0000              add [eax],al
00000F8C  0000              add [eax],al
00000F8E  0000              add [eax],al
00000F90  0000              add [eax],al
00000F92  0000              add [eax],al
00000F94  0000              add [eax],al
00000F96  0000              add [eax],al
00000F98  0000              add [eax],al
00000F9A  0000              add [eax],al
00000F9C  0000              add [eax],al
00000F9E  0000              add [eax],al
00000FA0  0000              add [eax],al
00000FA2  0000              add [eax],al
00000FA4  0000              add [eax],al
00000FA6  0000              add [eax],al
00000FA8  0000              add [eax],al
00000FAA  0000              add [eax],al
00000FAC  0000              add [eax],al
00000FAE  0000              add [eax],al
00000FB0  0000              add [eax],al
00000FB2  0000              add [eax],al
00000FB4  0000              add [eax],al
00000FB6  0000              add [eax],al
00000FB8  0000              add [eax],al
00000FBA  0000              add [eax],al
00000FBC  0000              add [eax],al
00000FBE  0000              add [eax],al
00000FC0  0000              add [eax],al
00000FC2  0000              add [eax],al
00000FC4  0000              add [eax],al
00000FC6  0000              add [eax],al
00000FC8  0000              add [eax],al
00000FCA  0000              add [eax],al
00000FCC  0000              add [eax],al
00000FCE  0000              add [eax],al
00000FD0  0000              add [eax],al
00000FD2  0000              add [eax],al
00000FD4  0000              add [eax],al
00000FD6  0000              add [eax],al
00000FD8  0000              add [eax],al
00000FDA  0000              add [eax],al
00000FDC  0000              add [eax],al
00000FDE  0000              add [eax],al
00000FE0  0000              add [eax],al
00000FE2  0000              add [eax],al
00000FE4  0000              add [eax],al
00000FE6  0000              add [eax],al
00000FE8  0000              add [eax],al
00000FEA  0000              add [eax],al
00000FEC  0000              add [eax],al
00000FEE  0000              add [eax],al
00000FF0  0000              add [eax],al
00000FF2  0000              add [eax],al
00000FF4  0000              add [eax],al
00000FF6  0000              add [eax],al
00000FF8  0000              add [eax],al
00000FFA  0000              add [eax],al
00000FFC  0000              add [eax],al
00000FFE  0000              add [eax],al
00001000  0000              add [eax],al
00001002  0000              add [eax],al
00001004  0000              add [eax],al
00001006  0000              add [eax],al
00001008  0000              add [eax],al
0000100A  0000              add [eax],al
0000100C  0000              add [eax],al
0000100E  0000              add [eax],al
00001010  0000              add [eax],al
00001012  0000              add [eax],al
00001014  0000              add [eax],al
00001016  0000              add [eax],al
00001018  0000              add [eax],al
0000101A  0000              add [eax],al
0000101C  0000              add [eax],al
0000101E  0000              add [eax],al
00001020  0000              add [eax],al
00001022  0000              add [eax],al
00001024  0000              add [eax],al
00001026  0000              add [eax],al
00001028  0000              add [eax],al
0000102A  0000              add [eax],al
0000102C  0000              add [eax],al
0000102E  0000              add [eax],al
00001030  0000              add [eax],al
00001032  0000              add [eax],al
00001034  0000              add [eax],al
00001036  0000              add [eax],al
00001038  0000              add [eax],al
0000103A  0000              add [eax],al
0000103C  0000              add [eax],al
0000103E  0000              add [eax],al
00001040  0000              add [eax],al
00001042  0000              add [eax],al
00001044  0000              add [eax],al
00001046  0000              add [eax],al
00001048  0000              add [eax],al
0000104A  0000              add [eax],al
0000104C  0000              add [eax],al
0000104E  0000              add [eax],al
00001050  0000              add [eax],al
00001052  0000              add [eax],al
00001054  0000              add [eax],al
00001056  0000              add [eax],al
00001058  0000              add [eax],al
0000105A  0000              add [eax],al
0000105C  0000              add [eax],al
0000105E  0000              add [eax],al
00001060  0000              add [eax],al
00001062  0000              add [eax],al
00001064  0000              add [eax],al
00001066  0000              add [eax],al
00001068  0000              add [eax],al
0000106A  0000              add [eax],al
0000106C  0000              add [eax],al
0000106E  0000              add [eax],al
00001070  0000              add [eax],al
00001072  0000              add [eax],al
00001074  0000              add [eax],al
00001076  0000              add [eax],al
00001078  0000              add [eax],al
0000107A  0000              add [eax],al
0000107C  0000              add [eax],al
0000107E  0000              add [eax],al
00001080  0000              add [eax],al
00001082  0000              add [eax],al
00001084  0000              add [eax],al
00001086  0000              add [eax],al
00001088  0000              add [eax],al
0000108A  0000              add [eax],al
0000108C  0000              add [eax],al
0000108E  0000              add [eax],al
00001090  0000              add [eax],al
00001092  0000              add [eax],al
00001094  0000              add [eax],al
00001096  0000              add [eax],al
00001098  0000              add [eax],al
0000109A  0000              add [eax],al
0000109C  0000              add [eax],al
0000109E  0000              add [eax],al
000010A0  0000              add [eax],al
000010A2  0000              add [eax],al
000010A4  0000              add [eax],al
000010A6  0000              add [eax],al
000010A8  0000              add [eax],al
000010AA  0000              add [eax],al
000010AC  0000              add [eax],al
000010AE  0000              add [eax],al
000010B0  0000              add [eax],al
000010B2  0000              add [eax],al
000010B4  0000              add [eax],al
000010B6  0000              add [eax],al
000010B8  0000              add [eax],al
000010BA  0000              add [eax],al
000010BC  0000              add [eax],al
000010BE  0000              add [eax],al
000010C0  0000              add [eax],al
000010C2  0000              add [eax],al
000010C4  0000              add [eax],al
000010C6  0000              add [eax],al
000010C8  0000              add [eax],al
000010CA  0000              add [eax],al
000010CC  0000              add [eax],al
000010CE  0000              add [eax],al
000010D0  0000              add [eax],al
000010D2  0000              add [eax],al
000010D4  0000              add [eax],al
000010D6  0000              add [eax],al
000010D8  0000              add [eax],al
000010DA  0000              add [eax],al
000010DC  0000              add [eax],al
000010DE  0000              add [eax],al
000010E0  0000              add [eax],al
000010E2  0000              add [eax],al
000010E4  0000              add [eax],al
000010E6  0000              add [eax],al
000010E8  0000              add [eax],al
000010EA  0000              add [eax],al
000010EC  0000              add [eax],al
000010EE  0000              add [eax],al
000010F0  0000              add [eax],al
000010F2  0000              add [eax],al
000010F4  0000              add [eax],al
000010F6  0000              add [eax],al
000010F8  0000              add [eax],al
000010FA  0000              add [eax],al
000010FC  0000              add [eax],al
000010FE  0000              add [eax],al
00001100  0000              add [eax],al
00001102  0000              add [eax],al
00001104  0000              add [eax],al
00001106  0000              add [eax],al
00001108  0000              add [eax],al
0000110A  0000              add [eax],al
0000110C  0000              add [eax],al
0000110E  0000              add [eax],al
00001110  0000              add [eax],al
00001112  0000              add [eax],al
00001114  0000              add [eax],al
00001116  0000              add [eax],al
00001118  0000              add [eax],al
0000111A  0000              add [eax],al
0000111C  0000              add [eax],al
0000111E  0000              add [eax],al
00001120  0000              add [eax],al
00001122  0000              add [eax],al
00001124  0000              add [eax],al
00001126  0000              add [eax],al
00001128  0000              add [eax],al
0000112A  0000              add [eax],al
0000112C  0000              add [eax],al
0000112E  0000              add [eax],al
00001130  0000              add [eax],al
00001132  0000              add [eax],al
00001134  0000              add [eax],al
00001136  0000              add [eax],al
00001138  0000              add [eax],al
0000113A  0000              add [eax],al
0000113C  0000              add [eax],al
0000113E  0000              add [eax],al
00001140  0000              add [eax],al
00001142  0000              add [eax],al
00001144  0000              add [eax],al
00001146  0000              add [eax],al
00001148  0000              add [eax],al
0000114A  0000              add [eax],al
0000114C  0000              add [eax],al
0000114E  0000              add [eax],al
00001150  0000              add [eax],al
00001152  0000              add [eax],al
00001154  0000              add [eax],al
00001156  0000              add [eax],al
00001158  0000              add [eax],al
0000115A  0000              add [eax],al
0000115C  0000              add [eax],al
0000115E  0000              add [eax],al
00001160  0000              add [eax],al
00001162  0000              add [eax],al
00001164  0000              add [eax],al
00001166  0000              add [eax],al
00001168  0000              add [eax],al
0000116A  0000              add [eax],al
0000116C  0000              add [eax],al
0000116E  0000              add [eax],al
00001170  0000              add [eax],al
00001172  0000              add [eax],al
00001174  0000              add [eax],al
00001176  0000              add [eax],al
00001178  0000              add [eax],al
0000117A  0000              add [eax],al
0000117C  0000              add [eax],al
0000117E  0000              add [eax],al
00001180  0000              add [eax],al
00001182  0000              add [eax],al
00001184  0000              add [eax],al
00001186  0000              add [eax],al
00001188  0000              add [eax],al
0000118A  0000              add [eax],al
0000118C  0000              add [eax],al
0000118E  0000              add [eax],al
00001190  0000              add [eax],al
00001192  0000              add [eax],al
00001194  0000              add [eax],al
00001196  0000              add [eax],al
00001198  0000              add [eax],al
0000119A  0000              add [eax],al
0000119C  0000              add [eax],al
0000119E  0000              add [eax],al
000011A0  0000              add [eax],al
000011A2  0000              add [eax],al
000011A4  0000              add [eax],al
000011A6  0000              add [eax],al
000011A8  0000              add [eax],al
000011AA  0000              add [eax],al
000011AC  0000              add [eax],al
000011AE  0000              add [eax],al
000011B0  0000              add [eax],al
000011B2  0000              add [eax],al
000011B4  0000              add [eax],al
000011B6  0000              add [eax],al
000011B8  0000              add [eax],al
000011BA  0000              add [eax],al
000011BC  0000              add [eax],al
000011BE  0000              add [eax],al
000011C0  0000              add [eax],al
000011C2  0000              add [eax],al
000011C4  0000              add [eax],al
000011C6  0000              add [eax],al
000011C8  0000              add [eax],al
000011CA  0000              add [eax],al
000011CC  0000              add [eax],al
000011CE  0000              add [eax],al
000011D0  0000              add [eax],al
000011D2  0000              add [eax],al
000011D4  0000              add [eax],al
000011D6  0000              add [eax],al
000011D8  0000              add [eax],al
000011DA  0000              add [eax],al
000011DC  0000              add [eax],al
000011DE  0000              add [eax],al
000011E0  0000              add [eax],al
000011E2  0000              add [eax],al
000011E4  0000              add [eax],al
000011E6  0000              add [eax],al
000011E8  0000              add [eax],al
000011EA  0000              add [eax],al
000011EC  0000              add [eax],al
000011EE  0000              add [eax],al
000011F0  0000              add [eax],al
000011F2  0000              add [eax],al
000011F4  0000              add [eax],al
000011F6  0000              add [eax],al
000011F8  0000              add [eax],al
000011FA  0000              add [eax],al
000011FC  0000              add [eax],al
000011FE  0000              add [eax],al
00001200  0000              add [eax],al
00001202  0000              add [eax],al
00001204  0000              add [eax],al
00001206  0000              add [eax],al
00001208  0000              add [eax],al
0000120A  0000              add [eax],al
0000120C  0000              add [eax],al
0000120E  0000              add [eax],al
00001210  0000              add [eax],al
00001212  0000              add [eax],al
00001214  0000              add [eax],al
00001216  0000              add [eax],al
00001218  0000              add [eax],al
0000121A  0000              add [eax],al
0000121C  0000              add [eax],al
0000121E  0000              add [eax],al
00001220  0000              add [eax],al
00001222  0000              add [eax],al
00001224  0000              add [eax],al
00001226  0000              add [eax],al
00001228  0000              add [eax],al
0000122A  0000              add [eax],al
0000122C  0000              add [eax],al
0000122E  0000              add [eax],al
00001230  0000              add [eax],al
00001232  0000              add [eax],al
00001234  0000              add [eax],al
00001236  0000              add [eax],al
00001238  0000              add [eax],al
0000123A  0000              add [eax],al
0000123C  0000              add [eax],al
0000123E  0000              add [eax],al
00001240  0000              add [eax],al
00001242  0000              add [eax],al
00001244  0000              add [eax],al
00001246  0000              add [eax],al
00001248  0000              add [eax],al
0000124A  0000              add [eax],al
0000124C  0000              add [eax],al
0000124E  0000              add [eax],al
00001250  0000              add [eax],al
00001252  0000              add [eax],al
00001254  0000              add [eax],al
00001256  0000              add [eax],al
00001258  0000              add [eax],al
0000125A  0000              add [eax],al
0000125C  0000              add [eax],al
0000125E  0000              add [eax],al
00001260  0000              add [eax],al
00001262  0000              add [eax],al
00001264  0000              add [eax],al
00001266  0000              add [eax],al
00001268  0000              add [eax],al
0000126A  0000              add [eax],al
0000126C  0000              add [eax],al
0000126E  0000              add [eax],al
00001270  0000              add [eax],al
00001272  0000              add [eax],al
00001274  0000              add [eax],al
00001276  0000              add [eax],al
00001278  0000              add [eax],al
0000127A  0000              add [eax],al
0000127C  0000              add [eax],al
0000127E  0000              add [eax],al
00001280  0000              add [eax],al
00001282  0000              add [eax],al
00001284  0000              add [eax],al
00001286  0000              add [eax],al
00001288  0000              add [eax],al
0000128A  0000              add [eax],al
0000128C  0000              add [eax],al
0000128E  0000              add [eax],al
00001290  0000              add [eax],al
00001292  0000              add [eax],al
00001294  0000              add [eax],al
00001296  0000              add [eax],al
00001298  0000              add [eax],al
0000129A  0000              add [eax],al
0000129C  0000              add [eax],al
0000129E  0000              add [eax],al
000012A0  0000              add [eax],al
000012A2  0000              add [eax],al
000012A4  0000              add [eax],al
000012A6  0000              add [eax],al
000012A8  0000              add [eax],al
000012AA  0000              add [eax],al
000012AC  0000              add [eax],al
000012AE  0000              add [eax],al
000012B0  0000              add [eax],al
000012B2  0000              add [eax],al
000012B4  0000              add [eax],al
000012B6  0000              add [eax],al
000012B8  0000              add [eax],al
000012BA  0000              add [eax],al
000012BC  0000              add [eax],al
000012BE  0000              add [eax],al
000012C0  0000              add [eax],al
000012C2  0000              add [eax],al
000012C4  0000              add [eax],al
000012C6  0000              add [eax],al
000012C8  0000              add [eax],al
000012CA  0000              add [eax],al
000012CC  0000              add [eax],al
000012CE  0000              add [eax],al
000012D0  0000              add [eax],al
000012D2  0000              add [eax],al
000012D4  0000              add [eax],al
000012D6  0000              add [eax],al
000012D8  0000              add [eax],al
000012DA  0000              add [eax],al
000012DC  0000              add [eax],al
000012DE  0000              add [eax],al
000012E0  0000              add [eax],al
000012E2  0000              add [eax],al
000012E4  0000              add [eax],al
000012E6  0000              add [eax],al
000012E8  0000              add [eax],al
000012EA  0000              add [eax],al
000012EC  0000              add [eax],al
000012EE  0000              add [eax],al
000012F0  0000              add [eax],al
000012F2  0000              add [eax],al
000012F4  0000              add [eax],al
000012F6  0000              add [eax],al
000012F8  0000              add [eax],al
000012FA  0000              add [eax],al
000012FC  0000              add [eax],al
000012FE  0000              add [eax],al
00001300  0000              add [eax],al
00001302  0000              add [eax],al
00001304  0000              add [eax],al
00001306  0000              add [eax],al
00001308  0000              add [eax],al
0000130A  0000              add [eax],al
0000130C  0000              add [eax],al
0000130E  0000              add [eax],al
00001310  0000              add [eax],al
00001312  0000              add [eax],al
00001314  0000              add [eax],al
00001316  0000              add [eax],al
00001318  0000              add [eax],al
0000131A  0000              add [eax],al
0000131C  0000              add [eax],al
0000131E  0000              add [eax],al
00001320  0000              add [eax],al
00001322  0000              add [eax],al
00001324  0000              add [eax],al
00001326  0000              add [eax],al
00001328  0000              add [eax],al
0000132A  0000              add [eax],al
0000132C  0000              add [eax],al
0000132E  0000              add [eax],al
00001330  0000              add [eax],al
00001332  0000              add [eax],al
00001334  0000              add [eax],al
00001336  0000              add [eax],al
00001338  0000              add [eax],al
0000133A  0000              add [eax],al
0000133C  0000              add [eax],al
0000133E  0000              add [eax],al
00001340  0000              add [eax],al
00001342  0000              add [eax],al
00001344  0000              add [eax],al
00001346  0000              add [eax],al
00001348  0000              add [eax],al
0000134A  0000              add [eax],al
0000134C  0000              add [eax],al
0000134E  0000              add [eax],al
00001350  0000              add [eax],al
00001352  0000              add [eax],al
00001354  0000              add [eax],al
00001356  0000              add [eax],al
00001358  0000              add [eax],al
0000135A  0000              add [eax],al
0000135C  0000              add [eax],al
0000135E  0000              add [eax],al
00001360  0000              add [eax],al
00001362  0000              add [eax],al
00001364  0000              add [eax],al
00001366  0000              add [eax],al
00001368  0000              add [eax],al
0000136A  0000              add [eax],al
0000136C  0000              add [eax],al
0000136E  0000              add [eax],al
00001370  0000              add [eax],al
00001372  0000              add [eax],al
00001374  0000              add [eax],al
00001376  0000              add [eax],al
00001378  0000              add [eax],al
0000137A  0000              add [eax],al
0000137C  0000              add [eax],al
0000137E  0000              add [eax],al
00001380  0000              add [eax],al
00001382  0000              add [eax],al
00001384  0000              add [eax],al
00001386  0000              add [eax],al
00001388  0000              add [eax],al
0000138A  0000              add [eax],al
0000138C  0000              add [eax],al
0000138E  0000              add [eax],al
00001390  0000              add [eax],al
00001392  0000              add [eax],al
00001394  0000              add [eax],al
00001396  0000              add [eax],al
00001398  0000              add [eax],al
0000139A  0000              add [eax],al
0000139C  0000              add [eax],al
0000139E  0000              add [eax],al
000013A0  0000              add [eax],al
000013A2  0000              add [eax],al
000013A4  0000              add [eax],al
000013A6  0000              add [eax],al
000013A8  0000              add [eax],al
000013AA  0000              add [eax],al
000013AC  0000              add [eax],al
000013AE  0000              add [eax],al
000013B0  0000              add [eax],al
000013B2  0000              add [eax],al
000013B4  0000              add [eax],al
000013B6  0000              add [eax],al
000013B8  0000              add [eax],al
000013BA  0000              add [eax],al
000013BC  0000              add [eax],al
000013BE  0000              add [eax],al
000013C0  0000              add [eax],al
000013C2  0000              add [eax],al
000013C4  0000              add [eax],al
000013C6  0000              add [eax],al
000013C8  0000              add [eax],al
000013CA  0000              add [eax],al
000013CC  0000              add [eax],al
000013CE  0000              add [eax],al
000013D0  0000              add [eax],al
000013D2  0000              add [eax],al
000013D4  0000              add [eax],al
000013D6  0000              add [eax],al
000013D8  0000              add [eax],al
000013DA  0000              add [eax],al
000013DC  0000              add [eax],al
000013DE  0000              add [eax],al
000013E0  0000              add [eax],al
000013E2  0000              add [eax],al
000013E4  0000              add [eax],al
000013E6  0000              add [eax],al
000013E8  0000              add [eax],al
000013EA  0000              add [eax],al
000013EC  0000              add [eax],al
000013EE  0000              add [eax],al
000013F0  0000              add [eax],al
000013F2  0000              add [eax],al
000013F4  0000              add [eax],al
000013F6  0000              add [eax],al
000013F8  0000              add [eax],al
000013FA  0000              add [eax],al
000013FC  0000              add [eax],al
000013FE  0000              add [eax],al
00001400  0000              add [eax],al
00001402  0000              add [eax],al
00001404  0000              add [eax],al
00001406  0000              add [eax],al
00001408  0000              add [eax],al
0000140A  0000              add [eax],al
0000140C  0000              add [eax],al
0000140E  0000              add [eax],al
00001410  0000              add [eax],al
00001412  0000              add [eax],al
00001414  0000              add [eax],al
00001416  0000              add [eax],al
00001418  0000              add [eax],al
0000141A  0000              add [eax],al
0000141C  0000              add [eax],al
0000141E  0000              add [eax],al
00001420  0000              add [eax],al
00001422  0000              add [eax],al
00001424  0000              add [eax],al
00001426  0000              add [eax],al
00001428  0000              add [eax],al
0000142A  0000              add [eax],al
0000142C  0000              add [eax],al
0000142E  0000              add [eax],al
00001430  0000              add [eax],al
00001432  0000              add [eax],al
00001434  0000              add [eax],al
00001436  0000              add [eax],al
00001438  0000              add [eax],al
0000143A  0000              add [eax],al
0000143C  0000              add [eax],al
0000143E  0000              add [eax],al
00001440  0000              add [eax],al
00001442  0000              add [eax],al
00001444  0000              add [eax],al
00001446  0000              add [eax],al
00001448  0000              add [eax],al
0000144A  0000              add [eax],al
0000144C  0000              add [eax],al
0000144E  0000              add [eax],al
00001450  0000              add [eax],al
00001452  0000              add [eax],al
00001454  0000              add [eax],al
00001456  0000              add [eax],al
00001458  0000              add [eax],al
0000145A  0000              add [eax],al
0000145C  0000              add [eax],al
0000145E  0000              add [eax],al
00001460  0000              add [eax],al
00001462  0000              add [eax],al
00001464  0000              add [eax],al
00001466  0000              add [eax],al
00001468  0000              add [eax],al
0000146A  0000              add [eax],al
0000146C  0000              add [eax],al
0000146E  0000              add [eax],al
00001470  0000              add [eax],al
00001472  0000              add [eax],al
00001474  0000              add [eax],al
00001476  0000              add [eax],al
00001478  0000              add [eax],al
0000147A  0000              add [eax],al
0000147C  0000              add [eax],al
0000147E  0000              add [eax],al
00001480  0000              add [eax],al
00001482  0000              add [eax],al
00001484  0000              add [eax],al
00001486  0000              add [eax],al
00001488  0000              add [eax],al
0000148A  0000              add [eax],al
0000148C  0000              add [eax],al
0000148E  0000              add [eax],al
00001490  0000              add [eax],al
00001492  0000              add [eax],al
00001494  0000              add [eax],al
00001496  0000              add [eax],al
00001498  0000              add [eax],al
0000149A  0000              add [eax],al
0000149C  0000              add [eax],al
0000149E  0000              add [eax],al
000014A0  0000              add [eax],al
000014A2  0000              add [eax],al
000014A4  0000              add [eax],al
000014A6  0000              add [eax],al
000014A8  0000              add [eax],al
000014AA  0000              add [eax],al
000014AC  0000              add [eax],al
000014AE  0000              add [eax],al
000014B0  0000              add [eax],al
000014B2  0000              add [eax],al
000014B4  0000              add [eax],al
000014B6  0000              add [eax],al
000014B8  0000              add [eax],al
000014BA  0000              add [eax],al
000014BC  0000              add [eax],al
000014BE  0000              add [eax],al
000014C0  0000              add [eax],al
000014C2  0000              add [eax],al
000014C4  0000              add [eax],al
000014C6  0000              add [eax],al
000014C8  0000              add [eax],al
000014CA  0000              add [eax],al
000014CC  0000              add [eax],al
000014CE  0000              add [eax],al
000014D0  0000              add [eax],al
000014D2  0000              add [eax],al
000014D4  0000              add [eax],al
000014D6  0000              add [eax],al
000014D8  0000              add [eax],al
000014DA  0000              add [eax],al
000014DC  0000              add [eax],al
000014DE  0000              add [eax],al
000014E0  0000              add [eax],al
000014E2  0000              add [eax],al
000014E4  0000              add [eax],al
000014E6  0000              add [eax],al
000014E8  0000              add [eax],al
000014EA  0000              add [eax],al
000014EC  0000              add [eax],al
000014EE  0000              add [eax],al
000014F0  0000              add [eax],al
000014F2  0000              add [eax],al
000014F4  0000              add [eax],al
000014F6  0000              add [eax],al
000014F8  0000              add [eax],al
000014FA  0000              add [eax],al
000014FC  0000              add [eax],al
000014FE  0000              add [eax],al
00001500  0000              add [eax],al
00001502  0000              add [eax],al
00001504  0000              add [eax],al
00001506  0000              add [eax],al
00001508  0000              add [eax],al
0000150A  0000              add [eax],al
0000150C  0000              add [eax],al
0000150E  0000              add [eax],al
00001510  0000              add [eax],al
00001512  0000              add [eax],al
00001514  0000              add [eax],al
00001516  0000              add [eax],al
00001518  0000              add [eax],al
0000151A  0000              add [eax],al
0000151C  0000              add [eax],al
0000151E  0000              add [eax],al
00001520  0000              add [eax],al
00001522  0000              add [eax],al
00001524  0000              add [eax],al
00001526  0000              add [eax],al
00001528  0000              add [eax],al
0000152A  0000              add [eax],al
0000152C  0000              add [eax],al
0000152E  0000              add [eax],al
00001530  0000              add [eax],al
00001532  0000              add [eax],al
00001534  0000              add [eax],al
00001536  0000              add [eax],al
00001538  0000              add [eax],al
0000153A  0000              add [eax],al
0000153C  0000              add [eax],al
0000153E  0000              add [eax],al
00001540  0000              add [eax],al
00001542  0000              add [eax],al
00001544  0000              add [eax],al
00001546  0000              add [eax],al
00001548  0000              add [eax],al
0000154A  0000              add [eax],al
0000154C  0000              add [eax],al
0000154E  0000              add [eax],al
00001550  0000              add [eax],al
00001552  0000              add [eax],al
00001554  0000              add [eax],al
00001556  0000              add [eax],al
00001558  0000              add [eax],al
0000155A  0000              add [eax],al
0000155C  0000              add [eax],al
0000155E  0000              add [eax],al
00001560  0000              add [eax],al
00001562  0000              add [eax],al
00001564  0000              add [eax],al
00001566  0000              add [eax],al
00001568  0000              add [eax],al
0000156A  0000              add [eax],al
0000156C  0000              add [eax],al
0000156E  0000              add [eax],al
00001570  0000              add [eax],al
00001572  0000              add [eax],al
00001574  0000              add [eax],al
00001576  0000              add [eax],al
00001578  0000              add [eax],al
0000157A  0000              add [eax],al
0000157C  0000              add [eax],al
0000157E  0000              add [eax],al
00001580  0000              add [eax],al
00001582  0000              add [eax],al
00001584  0000              add [eax],al
00001586  0000              add [eax],al
00001588  0000              add [eax],al
0000158A  0000              add [eax],al
0000158C  0000              add [eax],al
0000158E  0000              add [eax],al
00001590  0000              add [eax],al
00001592  0000              add [eax],al
00001594  0000              add [eax],al
00001596  0000              add [eax],al
00001598  0000              add [eax],al
0000159A  0000              add [eax],al
0000159C  0000              add [eax],al
0000159E  0000              add [eax],al
000015A0  0000              add [eax],al
000015A2  0000              add [eax],al
000015A4  0000              add [eax],al
000015A6  0000              add [eax],al
000015A8  0000              add [eax],al
000015AA  0000              add [eax],al
000015AC  0000              add [eax],al
000015AE  0000              add [eax],al
000015B0  0000              add [eax],al
000015B2  0000              add [eax],al
000015B4  0000              add [eax],al
000015B6  0000              add [eax],al
000015B8  0000              add [eax],al
000015BA  0000              add [eax],al
000015BC  0000              add [eax],al
000015BE  0000              add [eax],al
000015C0  0000              add [eax],al
000015C2  0000              add [eax],al
000015C4  0000              add [eax],al
000015C6  0000              add [eax],al
000015C8  0000              add [eax],al
000015CA  0000              add [eax],al
000015CC  0000              add [eax],al
000015CE  0000              add [eax],al
000015D0  0000              add [eax],al
000015D2  0000              add [eax],al
000015D4  0000              add [eax],al
000015D6  0000              add [eax],al
000015D8  0000              add [eax],al
000015DA  0000              add [eax],al
000015DC  0000              add [eax],al
000015DE  0000              add [eax],al
000015E0  0000              add [eax],al
000015E2  0000              add [eax],al
000015E4  0000              add [eax],al
000015E6  0000              add [eax],al
000015E8  0000              add [eax],al
000015EA  0000              add [eax],al
000015EC  0000              add [eax],al
000015EE  0000              add [eax],al
000015F0  0000              add [eax],al
000015F2  0000              add [eax],al
000015F4  0000              add [eax],al
000015F6  0000              add [eax],al
000015F8  0000              add [eax],al
000015FA  0000              add [eax],al
000015FC  0000              add [eax],al
000015FE  0000              add [eax],al
00001600  0000              add [eax],al
00001602  0000              add [eax],al
00001604  0000              add [eax],al
00001606  0000              add [eax],al
00001608  0000              add [eax],al
0000160A  0000              add [eax],al
0000160C  0000              add [eax],al
0000160E  0000              add [eax],al
00001610  0000              add [eax],al
00001612  0000              add [eax],al
00001614  0000              add [eax],al
00001616  0000              add [eax],al
00001618  0000              add [eax],al
0000161A  0000              add [eax],al
0000161C  0000              add [eax],al
0000161E  0000              add [eax],al
00001620  0000              add [eax],al
00001622  0000              add [eax],al
00001624  0000              add [eax],al
00001626  0000              add [eax],al
00001628  0000              add [eax],al
0000162A  0000              add [eax],al
0000162C  0000              add [eax],al
0000162E  0000              add [eax],al
00001630  0000              add [eax],al
00001632  0000              add [eax],al
00001634  0000              add [eax],al
00001636  0000              add [eax],al
00001638  0000              add [eax],al
0000163A  0000              add [eax],al
0000163C  0000              add [eax],al
0000163E  0000              add [eax],al
00001640  0000              add [eax],al
00001642  0000              add [eax],al
00001644  0000              add [eax],al
00001646  0000              add [eax],al
00001648  0000              add [eax],al
0000164A  0000              add [eax],al
0000164C  0000              add [eax],al
0000164E  0000              add [eax],al
00001650  0000              add [eax],al
00001652  0000              add [eax],al
00001654  0000              add [eax],al
00001656  0000              add [eax],al
00001658  0000              add [eax],al
0000165A  0000              add [eax],al
0000165C  0000              add [eax],al
0000165E  0000              add [eax],al
00001660  0000              add [eax],al
00001662  0000              add [eax],al
00001664  0000              add [eax],al
00001666  0000              add [eax],al
00001668  0000              add [eax],al
0000166A  0000              add [eax],al
0000166C  0000              add [eax],al
0000166E  0000              add [eax],al
00001670  0000              add [eax],al
00001672  0000              add [eax],al
00001674  0000              add [eax],al
00001676  0000              add [eax],al
00001678  0000              add [eax],al
0000167A  0000              add [eax],al
0000167C  0000              add [eax],al
0000167E  0000              add [eax],al
00001680  0000              add [eax],al
00001682  0000              add [eax],al
00001684  0000              add [eax],al
00001686  0000              add [eax],al
00001688  0000              add [eax],al
0000168A  0000              add [eax],al
0000168C  0000              add [eax],al
0000168E  0000              add [eax],al
00001690  0000              add [eax],al
00001692  0000              add [eax],al
00001694  0000              add [eax],al
00001696  0000              add [eax],al
00001698  0000              add [eax],al
0000169A  0000              add [eax],al
0000169C  0000              add [eax],al
0000169E  0000              add [eax],al
000016A0  0000              add [eax],al
000016A2  0000              add [eax],al
000016A4  0000              add [eax],al
000016A6  0000              add [eax],al
000016A8  0000              add [eax],al
000016AA  0000              add [eax],al
000016AC  0000              add [eax],al
000016AE  0000              add [eax],al
000016B0  0000              add [eax],al
000016B2  0000              add [eax],al
000016B4  0000              add [eax],al
000016B6  0000              add [eax],al
000016B8  0000              add [eax],al
000016BA  0000              add [eax],al
000016BC  0000              add [eax],al
000016BE  0000              add [eax],al
000016C0  0000              add [eax],al
000016C2  0000              add [eax],al
000016C4  0000              add [eax],al
000016C6  0000              add [eax],al
000016C8  0000              add [eax],al
000016CA  0000              add [eax],al
000016CC  0000              add [eax],al
000016CE  0000              add [eax],al
000016D0  0000              add [eax],al
000016D2  0000              add [eax],al
000016D4  0000              add [eax],al
000016D6  0000              add [eax],al
000016D8  0000              add [eax],al
000016DA  0000              add [eax],al
000016DC  0000              add [eax],al
000016DE  0000              add [eax],al
000016E0  0000              add [eax],al
000016E2  0000              add [eax],al
000016E4  0000              add [eax],al
000016E6  0000              add [eax],al
000016E8  0000              add [eax],al
000016EA  0000              add [eax],al
000016EC  0000              add [eax],al
000016EE  0000              add [eax],al
000016F0  0000              add [eax],al
000016F2  0000              add [eax],al
000016F4  0000              add [eax],al
000016F6  0000              add [eax],al
000016F8  0000              add [eax],al
000016FA  0000              add [eax],al
000016FC  0000              add [eax],al
000016FE  0000              add [eax],al
00001700  0000              add [eax],al
00001702  0000              add [eax],al
00001704  0000              add [eax],al
00001706  0000              add [eax],al
00001708  0000              add [eax],al
0000170A  0000              add [eax],al
0000170C  0000              add [eax],al
0000170E  0000              add [eax],al
00001710  0000              add [eax],al
00001712  0000              add [eax],al
00001714  0000              add [eax],al
00001716  0000              add [eax],al
00001718  0000              add [eax],al
0000171A  0000              add [eax],al
0000171C  0000              add [eax],al
0000171E  0000              add [eax],al
00001720  0000              add [eax],al
00001722  0000              add [eax],al
00001724  0000              add [eax],al
00001726  0000              add [eax],al
00001728  0000              add [eax],al
0000172A  0000              add [eax],al
0000172C  0000              add [eax],al
0000172E  0000              add [eax],al
00001730  0000              add [eax],al
00001732  0000              add [eax],al
00001734  0000              add [eax],al
00001736  0000              add [eax],al
00001738  0000              add [eax],al
0000173A  0000              add [eax],al
0000173C  0000              add [eax],al
0000173E  0000              add [eax],al
00001740  0000              add [eax],al
00001742  0000              add [eax],al
00001744  0000              add [eax],al
00001746  0000              add [eax],al
00001748  0000              add [eax],al
0000174A  0000              add [eax],al
0000174C  0000              add [eax],al
0000174E  0000              add [eax],al
00001750  0000              add [eax],al
00001752  0000              add [eax],al
00001754  0000              add [eax],al
00001756  0000              add [eax],al
00001758  0000              add [eax],al
0000175A  0000              add [eax],al
0000175C  0000              add [eax],al
0000175E  0000              add [eax],al
00001760  0000              add [eax],al
00001762  0000              add [eax],al
00001764  0000              add [eax],al
00001766  0000              add [eax],al
00001768  0000              add [eax],al
0000176A  0000              add [eax],al
0000176C  0000              add [eax],al
0000176E  0000              add [eax],al
00001770  0000              add [eax],al
00001772  0000              add [eax],al
00001774  0000              add [eax],al
00001776  0000              add [eax],al
00001778  0000              add [eax],al
0000177A  0000              add [eax],al
0000177C  0000              add [eax],al
0000177E  0000              add [eax],al
00001780  0000              add [eax],al
00001782  0000              add [eax],al
00001784  0000              add [eax],al
00001786  0000              add [eax],al
00001788  0000              add [eax],al
0000178A  0000              add [eax],al
0000178C  0000              add [eax],al
0000178E  0000              add [eax],al
00001790  0000              add [eax],al
00001792  0000              add [eax],al
00001794  0000              add [eax],al
00001796  0000              add [eax],al
00001798  0000              add [eax],al
0000179A  0000              add [eax],al
0000179C  0000              add [eax],al
0000179E  0000              add [eax],al
000017A0  0000              add [eax],al
000017A2  0000              add [eax],al
000017A4  0000              add [eax],al
000017A6  0000              add [eax],al
000017A8  0000              add [eax],al
000017AA  0000              add [eax],al
000017AC  0000              add [eax],al
000017AE  0000              add [eax],al
000017B0  0000              add [eax],al
000017B2  0000              add [eax],al
000017B4  0000              add [eax],al
000017B6  0000              add [eax],al
000017B8  0000              add [eax],al
000017BA  0000              add [eax],al
000017BC  0000              add [eax],al
000017BE  0000              add [eax],al
000017C0  0000              add [eax],al
000017C2  0000              add [eax],al
000017C4  0000              add [eax],al
000017C6  0000              add [eax],al
000017C8  0000              add [eax],al
000017CA  0000              add [eax],al
000017CC  0000              add [eax],al
000017CE  0000              add [eax],al
000017D0  0000              add [eax],al
000017D2  0000              add [eax],al
000017D4  0000              add [eax],al
000017D6  0000              add [eax],al
000017D8  0000              add [eax],al
000017DA  0000              add [eax],al
000017DC  0000              add [eax],al
000017DE  0000              add [eax],al
000017E0  0000              add [eax],al
000017E2  0000              add [eax],al
000017E4  0000              add [eax],al
000017E6  0000              add [eax],al
000017E8  0000              add [eax],al
000017EA  0000              add [eax],al
000017EC  0000              add [eax],al
000017EE  0000              add [eax],al
000017F0  0000              add [eax],al
000017F2  0000              add [eax],al
000017F4  0000              add [eax],al
000017F6  0000              add [eax],al
000017F8  0000              add [eax],al
000017FA  0000              add [eax],al
000017FC  0000              add [eax],al
000017FE  0000              add [eax],al
00001800  0000              add [eax],al
00001802  0000              add [eax],al
00001804  0000              add [eax],al
00001806  0000              add [eax],al
00001808  0000              add [eax],al
0000180A  0000              add [eax],al
0000180C  0000              add [eax],al
0000180E  0000              add [eax],al
00001810  0000              add [eax],al
00001812  0000              add [eax],al
00001814  0000              add [eax],al
00001816  0000              add [eax],al
00001818  0000              add [eax],al
0000181A  0000              add [eax],al
0000181C  0000              add [eax],al
0000181E  0000              add [eax],al
00001820  0000              add [eax],al
00001822  0000              add [eax],al
00001824  0000              add [eax],al
00001826  0000              add [eax],al
00001828  0000              add [eax],al
0000182A  0000              add [eax],al
0000182C  0000              add [eax],al
0000182E  0000              add [eax],al
00001830  0000              add [eax],al
00001832  0000              add [eax],al
00001834  0000              add [eax],al
00001836  0000              add [eax],al
00001838  0000              add [eax],al
0000183A  0000              add [eax],al
0000183C  0000              add [eax],al
0000183E  0000              add [eax],al
00001840  0000              add [eax],al
00001842  0000              add [eax],al
00001844  0000              add [eax],al
00001846  0000              add [eax],al
00001848  0000              add [eax],al
0000184A  0000              add [eax],al
0000184C  0000              add [eax],al
0000184E  0000              add [eax],al
00001850  0000              add [eax],al
00001852  0000              add [eax],al
00001854  0000              add [eax],al
00001856  0000              add [eax],al
00001858  0000              add [eax],al
0000185A  0000              add [eax],al
0000185C  0000              add [eax],al
0000185E  0000              add [eax],al
00001860  0000              add [eax],al
00001862  0000              add [eax],al
00001864  0000              add [eax],al
00001866  0000              add [eax],al
00001868  0000              add [eax],al
0000186A  0000              add [eax],al
0000186C  0000              add [eax],al
0000186E  0000              add [eax],al
00001870  0000              add [eax],al
00001872  0000              add [eax],al
00001874  0000              add [eax],al
00001876  0000              add [eax],al
00001878  0000              add [eax],al
0000187A  0000              add [eax],al
0000187C  0000              add [eax],al
0000187E  0000              add [eax],al
00001880  0000              add [eax],al
00001882  0000              add [eax],al
00001884  0000              add [eax],al
00001886  0000              add [eax],al
00001888  0000              add [eax],al
0000188A  0000              add [eax],al
0000188C  0000              add [eax],al
0000188E  0000              add [eax],al
00001890  0000              add [eax],al
00001892  0000              add [eax],al
00001894  0000              add [eax],al
00001896  0000              add [eax],al
00001898  0000              add [eax],al
0000189A  0000              add [eax],al
0000189C  0000              add [eax],al
0000189E  0000              add [eax],al
000018A0  0000              add [eax],al
000018A2  0000              add [eax],al
000018A4  0000              add [eax],al
000018A6  0000              add [eax],al
000018A8  0000              add [eax],al
000018AA  0000              add [eax],al
000018AC  0000              add [eax],al
000018AE  0000              add [eax],al
000018B0  0000              add [eax],al
000018B2  0000              add [eax],al
000018B4  0000              add [eax],al
000018B6  0000              add [eax],al
000018B8  0000              add [eax],al
000018BA  0000              add [eax],al
000018BC  0000              add [eax],al
000018BE  0000              add [eax],al
000018C0  0000              add [eax],al
000018C2  0000              add [eax],al
000018C4  0000              add [eax],al
000018C6  0000              add [eax],al
000018C8  0000              add [eax],al
000018CA  0000              add [eax],al
000018CC  0000              add [eax],al
000018CE  0000              add [eax],al
000018D0  0000              add [eax],al
000018D2  0000              add [eax],al
000018D4  0000              add [eax],al
000018D6  0000              add [eax],al
000018D8  0000              add [eax],al
000018DA  0000              add [eax],al
000018DC  0000              add [eax],al
000018DE  0000              add [eax],al
000018E0  0000              add [eax],al
000018E2  0000              add [eax],al
000018E4  0000              add [eax],al
000018E6  0000              add [eax],al
000018E8  0000              add [eax],al
000018EA  0000              add [eax],al
000018EC  0000              add [eax],al
000018EE  0000              add [eax],al
000018F0  0000              add [eax],al
000018F2  0000              add [eax],al
000018F4  0000              add [eax],al
000018F6  0000              add [eax],al
000018F8  0000              add [eax],al
000018FA  0000              add [eax],al
000018FC  0000              add [eax],al
000018FE  0000              add [eax],al
00001900  0000              add [eax],al
00001902  0000              add [eax],al
00001904  0000              add [eax],al
00001906  0000              add [eax],al
00001908  0000              add [eax],al
0000190A  0000              add [eax],al
0000190C  0000              add [eax],al
0000190E  0000              add [eax],al
00001910  0000              add [eax],al
00001912  0000              add [eax],al
00001914  0000              add [eax],al
00001916  0000              add [eax],al
00001918  0000              add [eax],al
0000191A  0000              add [eax],al
0000191C  0000              add [eax],al
0000191E  0000              add [eax],al
00001920  0000              add [eax],al
00001922  0000              add [eax],al
00001924  0000              add [eax],al
00001926  0000              add [eax],al
00001928  0000              add [eax],al
0000192A  0000              add [eax],al
0000192C  0000              add [eax],al
0000192E  0000              add [eax],al
00001930  0000              add [eax],al
00001932  0000              add [eax],al
00001934  0000              add [eax],al
00001936  0000              add [eax],al
00001938  0000              add [eax],al
0000193A  0000              add [eax],al
0000193C  0000              add [eax],al
0000193E  0000              add [eax],al
00001940  0000              add [eax],al
00001942  0000              add [eax],al
00001944  0000              add [eax],al
00001946  0000              add [eax],al
00001948  0000              add [eax],al
0000194A  0000              add [eax],al
0000194C  0000              add [eax],al
0000194E  0000              add [eax],al
00001950  0000              add [eax],al
00001952  0000              add [eax],al
00001954  0000              add [eax],al
00001956  0000              add [eax],al
00001958  0000              add [eax],al
0000195A  0000              add [eax],al
0000195C  0000              add [eax],al
0000195E  0000              add [eax],al
00001960  0000              add [eax],al
00001962  0000              add [eax],al
00001964  0000              add [eax],al
00001966  0000              add [eax],al
00001968  0000              add [eax],al
0000196A  0000              add [eax],al
0000196C  0000              add [eax],al
0000196E  0000              add [eax],al
00001970  0000              add [eax],al
00001972  0000              add [eax],al
00001974  0000              add [eax],al
00001976  0000              add [eax],al
00001978  0000              add [eax],al
0000197A  0000              add [eax],al
0000197C  0000              add [eax],al
0000197E  0000              add [eax],al
00001980  0000              add [eax],al
00001982  0000              add [eax],al
00001984  0000              add [eax],al
00001986  0000              add [eax],al
00001988  0000              add [eax],al
0000198A  0000              add [eax],al
0000198C  0000              add [eax],al
0000198E  0000              add [eax],al
00001990  0000              add [eax],al
00001992  0000              add [eax],al
00001994  0000              add [eax],al
00001996  0000              add [eax],al
00001998  0000              add [eax],al
0000199A  0000              add [eax],al
0000199C  0000              add [eax],al
0000199E  0000              add [eax],al
000019A0  0000              add [eax],al
000019A2  0000              add [eax],al
000019A4  0000              add [eax],al
000019A6  0000              add [eax],al
000019A8  0000              add [eax],al
000019AA  0000              add [eax],al
000019AC  0000              add [eax],al
000019AE  0000              add [eax],al
000019B0  0000              add [eax],al
000019B2  0000              add [eax],al
000019B4  0000              add [eax],al
000019B6  0000              add [eax],al
000019B8  0000              add [eax],al
000019BA  0000              add [eax],al
000019BC  0000              add [eax],al
000019BE  0000              add [eax],al
000019C0  0000              add [eax],al
000019C2  0000              add [eax],al
000019C4  0000              add [eax],al
000019C6  0000              add [eax],al
000019C8  0000              add [eax],al
000019CA  0000              add [eax],al
000019CC  0000              add [eax],al
000019CE  0000              add [eax],al
000019D0  0000              add [eax],al
000019D2  0000              add [eax],al
000019D4  0000              add [eax],al
000019D6  0000              add [eax],al
000019D8  0000              add [eax],al
000019DA  0000              add [eax],al
000019DC  0000              add [eax],al
000019DE  0000              add [eax],al
000019E0  0000              add [eax],al
000019E2  0000              add [eax],al
000019E4  0000              add [eax],al
000019E6  0000              add [eax],al
000019E8  0000              add [eax],al
000019EA  0000              add [eax],al
000019EC  0000              add [eax],al
000019EE  0000              add [eax],al
000019F0  0000              add [eax],al
000019F2  0000              add [eax],al
000019F4  0000              add [eax],al
000019F6  0000              add [eax],al
000019F8  0000              add [eax],al
000019FA  0000              add [eax],al
000019FC  0000              add [eax],al
000019FE  0000              add [eax],al
00001A00  0000              add [eax],al
00001A02  0000              add [eax],al
00001A04  0000              add [eax],al
00001A06  0000              add [eax],al
00001A08  0000              add [eax],al
00001A0A  0000              add [eax],al
00001A0C  0000              add [eax],al
00001A0E  0000              add [eax],al
00001A10  0000              add [eax],al
00001A12  0000              add [eax],al
00001A14  0000              add [eax],al
00001A16  0000              add [eax],al
00001A18  0000              add [eax],al
00001A1A  0000              add [eax],al
00001A1C  0000              add [eax],al
00001A1E  0000              add [eax],al
00001A20  0000              add [eax],al
00001A22  0000              add [eax],al
00001A24  0000              add [eax],al
00001A26  0000              add [eax],al
00001A28  0000              add [eax],al
00001A2A  0000              add [eax],al
00001A2C  0000              add [eax],al
00001A2E  0000              add [eax],al
00001A30  0000              add [eax],al
00001A32  0000              add [eax],al
00001A34  0000              add [eax],al
00001A36  0000              add [eax],al
00001A38  0000              add [eax],al
00001A3A  0000              add [eax],al
00001A3C  0000              add [eax],al
00001A3E  0000              add [eax],al
00001A40  0000              add [eax],al
00001A42  0000              add [eax],al
00001A44  0000              add [eax],al
00001A46  0000              add [eax],al
00001A48  0000              add [eax],al
00001A4A  0000              add [eax],al
00001A4C  0000              add [eax],al
00001A4E  0000              add [eax],al
00001A50  0000              add [eax],al
00001A52  0000              add [eax],al
00001A54  0000              add [eax],al
00001A56  0000              add [eax],al
00001A58  0000              add [eax],al
00001A5A  0000              add [eax],al
00001A5C  0000              add [eax],al
00001A5E  0000              add [eax],al
00001A60  0000              add [eax],al
00001A62  0000              add [eax],al
00001A64  0000              add [eax],al
00001A66  0000              add [eax],al
00001A68  0000              add [eax],al
00001A6A  0000              add [eax],al
00001A6C  0000              add [eax],al
00001A6E  0000              add [eax],al
00001A70  0000              add [eax],al
00001A72  0000              add [eax],al
00001A74  0000              add [eax],al
00001A76  0000              add [eax],al
00001A78  0000              add [eax],al
00001A7A  0000              add [eax],al
00001A7C  0000              add [eax],al
00001A7E  0000              add [eax],al
00001A80  0000              add [eax],al
00001A82  0000              add [eax],al
00001A84  0000              add [eax],al
00001A86  0000              add [eax],al
00001A88  0000              add [eax],al
00001A8A  0000              add [eax],al
00001A8C  0000              add [eax],al
00001A8E  0000              add [eax],al
00001A90  0000              add [eax],al
00001A92  0000              add [eax],al
00001A94  0000              add [eax],al
00001A96  0000              add [eax],al
00001A98  0000              add [eax],al
00001A9A  0000              add [eax],al
00001A9C  0000              add [eax],al
00001A9E  0000              add [eax],al
00001AA0  0000              add [eax],al
00001AA2  0000              add [eax],al
00001AA4  0000              add [eax],al
00001AA6  0000              add [eax],al
00001AA8  0000              add [eax],al
00001AAA  0000              add [eax],al
00001AAC  0000              add [eax],al
00001AAE  0000              add [eax],al
00001AB0  0000              add [eax],al
00001AB2  0000              add [eax],al
00001AB4  0000              add [eax],al
00001AB6  0000              add [eax],al
00001AB8  0000              add [eax],al
00001ABA  0000              add [eax],al
00001ABC  0000              add [eax],al
00001ABE  0000              add [eax],al
00001AC0  0000              add [eax],al
00001AC2  0000              add [eax],al
00001AC4  0000              add [eax],al
00001AC6  0000              add [eax],al
00001AC8  0000              add [eax],al
00001ACA  0000              add [eax],al
00001ACC  0000              add [eax],al
00001ACE  0000              add [eax],al
00001AD0  0000              add [eax],al
00001AD2  0000              add [eax],al
00001AD4  0000              add [eax],al
00001AD6  0000              add [eax],al
00001AD8  0000              add [eax],al
00001ADA  0000              add [eax],al
00001ADC  0000              add [eax],al
00001ADE  0000              add [eax],al
00001AE0  0000              add [eax],al
00001AE2  0000              add [eax],al
00001AE4  0000              add [eax],al
00001AE6  0000              add [eax],al
00001AE8  0000              add [eax],al
00001AEA  0000              add [eax],al
00001AEC  0000              add [eax],al
00001AEE  0000              add [eax],al
00001AF0  0000              add [eax],al
00001AF2  0000              add [eax],al
00001AF4  0000              add [eax],al
00001AF6  0000              add [eax],al
00001AF8  0000              add [eax],al
00001AFA  0000              add [eax],al
00001AFC  0000              add [eax],al
00001AFE  0000              add [eax],al
00001B00  0000              add [eax],al
00001B02  0000              add [eax],al
00001B04  0000              add [eax],al
00001B06  0000              add [eax],al
00001B08  0000              add [eax],al
00001B0A  0000              add [eax],al
00001B0C  0000              add [eax],al
00001B0E  0000              add [eax],al
00001B10  0000              add [eax],al
00001B12  0000              add [eax],al
00001B14  0000              add [eax],al
00001B16  0000              add [eax],al
00001B18  0000              add [eax],al
00001B1A  0000              add [eax],al
00001B1C  0000              add [eax],al
00001B1E  0000              add [eax],al
00001B20  0000              add [eax],al
00001B22  0000              add [eax],al
00001B24  0000              add [eax],al
00001B26  0000              add [eax],al
00001B28  0000              add [eax],al
00001B2A  0000              add [eax],al
00001B2C  0000              add [eax],al
00001B2E  0000              add [eax],al
00001B30  0000              add [eax],al
00001B32  0000              add [eax],al
00001B34  0000              add [eax],al
00001B36  0000              add [eax],al
00001B38  0000              add [eax],al
00001B3A  0000              add [eax],al
00001B3C  0000              add [eax],al
00001B3E  0000              add [eax],al
00001B40  0000              add [eax],al
00001B42  0000              add [eax],al
00001B44  0000              add [eax],al
00001B46  0000              add [eax],al
00001B48  0000              add [eax],al
00001B4A  0000              add [eax],al
00001B4C  0000              add [eax],al
00001B4E  0000              add [eax],al
00001B50  0000              add [eax],al
00001B52  0000              add [eax],al
00001B54  0000              add [eax],al
00001B56  0000              add [eax],al
00001B58  0000              add [eax],al
00001B5A  0000              add [eax],al
00001B5C  0000              add [eax],al
00001B5E  0000              add [eax],al
00001B60  0000              add [eax],al
00001B62  0000              add [eax],al
00001B64  0000              add [eax],al
00001B66  0000              add [eax],al
00001B68  0000              add [eax],al
00001B6A  0000              add [eax],al
00001B6C  0000              add [eax],al
00001B6E  0000              add [eax],al
00001B70  0000              add [eax],al
00001B72  0000              add [eax],al
00001B74  0000              add [eax],al
00001B76  0000              add [eax],al
00001B78  0000              add [eax],al
00001B7A  0000              add [eax],al
00001B7C  0000              add [eax],al
00001B7E  0000              add [eax],al
00001B80  0000              add [eax],al
00001B82  0000              add [eax],al
00001B84  0000              add [eax],al
00001B86  0000              add [eax],al
00001B88  0000              add [eax],al
00001B8A  0000              add [eax],al
00001B8C  0000              add [eax],al
00001B8E  0000              add [eax],al
00001B90  0000              add [eax],al
00001B92  0000              add [eax],al
00001B94  0000              add [eax],al
00001B96  0000              add [eax],al
00001B98  0000              add [eax],al
00001B9A  0000              add [eax],al
00001B9C  0000              add [eax],al
00001B9E  0000              add [eax],al
00001BA0  0000              add [eax],al
00001BA2  0000              add [eax],al
00001BA4  0000              add [eax],al
00001BA6  0000              add [eax],al
00001BA8  0000              add [eax],al
00001BAA  0000              add [eax],al
00001BAC  0000              add [eax],al
00001BAE  0000              add [eax],al
00001BB0  0000              add [eax],al
00001BB2  0000              add [eax],al
00001BB4  0000              add [eax],al
00001BB6  0000              add [eax],al
00001BB8  0000              add [eax],al
00001BBA  0000              add [eax],al
00001BBC  0000              add [eax],al
00001BBE  0000              add [eax],al
00001BC0  0000              add [eax],al
00001BC2  0000              add [eax],al
00001BC4  0000              add [eax],al
00001BC6  0000              add [eax],al
00001BC8  0000              add [eax],al
00001BCA  0000              add [eax],al
00001BCC  0000              add [eax],al
00001BCE  0000              add [eax],al
00001BD0  0000              add [eax],al
00001BD2  0000              add [eax],al
00001BD4  0000              add [eax],al
00001BD6  0000              add [eax],al
00001BD8  0000              add [eax],al
00001BDA  0000              add [eax],al
00001BDC  0000              add [eax],al
00001BDE  0000              add [eax],al
00001BE0  0000              add [eax],al
00001BE2  0000              add [eax],al
00001BE4  0000              add [eax],al
00001BE6  0000              add [eax],al
00001BE8  0000              add [eax],al
00001BEA  0000              add [eax],al
00001BEC  0000              add [eax],al
00001BEE  0000              add [eax],al
00001BF0  0000              add [eax],al
00001BF2  0000              add [eax],al
00001BF4  0000              add [eax],al
00001BF6  0000              add [eax],al
00001BF8  0000              add [eax],al
00001BFA  0000              add [eax],al
00001BFC  0000              add [eax],al
00001BFE  0000              add [eax],al
00001C00  0000              add [eax],al
00001C02  0000              add [eax],al
00001C04  0000              add [eax],al
00001C06  0000              add [eax],al
00001C08  0000              add [eax],al
00001C0A  0000              add [eax],al
00001C0C  0000              add [eax],al
00001C0E  0000              add [eax],al
00001C10  0000              add [eax],al
00001C12  0000              add [eax],al
00001C14  0000              add [eax],al
00001C16  0000              add [eax],al
00001C18  0000              add [eax],al
00001C1A  0000              add [eax],al
00001C1C  0000              add [eax],al
00001C1E  0000              add [eax],al
00001C20  0000              add [eax],al
00001C22  0000              add [eax],al
00001C24  0000              add [eax],al
00001C26  0000              add [eax],al
00001C28  0000              add [eax],al
00001C2A  0000              add [eax],al
00001C2C  0000              add [eax],al
00001C2E  0000              add [eax],al
00001C30  0000              add [eax],al
00001C32  0000              add [eax],al
00001C34  0000              add [eax],al
00001C36  0000              add [eax],al
00001C38  0000              add [eax],al
00001C3A  0000              add [eax],al
00001C3C  0000              add [eax],al
00001C3E  0000              add [eax],al
00001C40  0000              add [eax],al
00001C42  0000              add [eax],al
00001C44  0000              add [eax],al
00001C46  0000              add [eax],al
00001C48  0000              add [eax],al
00001C4A  0000              add [eax],al
00001C4C  0000              add [eax],al
00001C4E  0000              add [eax],al
00001C50  0000              add [eax],al
00001C52  0000              add [eax],al
00001C54  0000              add [eax],al
00001C56  0000              add [eax],al
00001C58  0000              add [eax],al
00001C5A  0000              add [eax],al
00001C5C  0000              add [eax],al
00001C5E  0000              add [eax],al
00001C60  0000              add [eax],al
00001C62  0000              add [eax],al
00001C64  0000              add [eax],al
00001C66  0000              add [eax],al
00001C68  0000              add [eax],al
00001C6A  0000              add [eax],al
00001C6C  0000              add [eax],al
00001C6E  0000              add [eax],al
00001C70  0000              add [eax],al
00001C72  0000              add [eax],al
00001C74  0000              add [eax],al
00001C76  0000              add [eax],al
00001C78  0000              add [eax],al
00001C7A  0000              add [eax],al
00001C7C  0000              add [eax],al
00001C7E  0000              add [eax],al
00001C80  0000              add [eax],al
00001C82  0000              add [eax],al
00001C84  0000              add [eax],al
00001C86  0000              add [eax],al
00001C88  0000              add [eax],al
00001C8A  0000              add [eax],al
00001C8C  0000              add [eax],al
00001C8E  0000              add [eax],al
00001C90  0000              add [eax],al
00001C92  0000              add [eax],al
00001C94  0000              add [eax],al
00001C96  0000              add [eax],al
00001C98  0000              add [eax],al
00001C9A  0000              add [eax],al
00001C9C  0000              add [eax],al
00001C9E  0000              add [eax],al
00001CA0  0000              add [eax],al
00001CA2  0000              add [eax],al
00001CA4  0000              add [eax],al
00001CA6  0000              add [eax],al
00001CA8  0000              add [eax],al
00001CAA  0000              add [eax],al
00001CAC  0000              add [eax],al
00001CAE  0000              add [eax],al
00001CB0  0000              add [eax],al
00001CB2  0000              add [eax],al
00001CB4  0000              add [eax],al
00001CB6  0000              add [eax],al
00001CB8  0000              add [eax],al
00001CBA  0000              add [eax],al
00001CBC  0000              add [eax],al
00001CBE  0000              add [eax],al
00001CC0  0000              add [eax],al
00001CC2  0000              add [eax],al
00001CC4  0000              add [eax],al
00001CC6  0000              add [eax],al
00001CC8  0000              add [eax],al
00001CCA  0000              add [eax],al
00001CCC  0000              add [eax],al
00001CCE  0000              add [eax],al
00001CD0  0000              add [eax],al
00001CD2  0000              add [eax],al
00001CD4  0000              add [eax],al
00001CD6  0000              add [eax],al
00001CD8  0000              add [eax],al
00001CDA  0000              add [eax],al
00001CDC  0000              add [eax],al
00001CDE  0000              add [eax],al
00001CE0  0000              add [eax],al
00001CE2  0000              add [eax],al
00001CE4  0000              add [eax],al
00001CE6  0000              add [eax],al
00001CE8  0000              add [eax],al
00001CEA  0000              add [eax],al
00001CEC  0000              add [eax],al
00001CEE  0000              add [eax],al
00001CF0  0000              add [eax],al
00001CF2  0000              add [eax],al
00001CF4  0000              add [eax],al
00001CF6  0000              add [eax],al
00001CF8  0000              add [eax],al
00001CFA  0000              add [eax],al
00001CFC  0000              add [eax],al
00001CFE  0000              add [eax],al
00001D00  0000              add [eax],al
00001D02  0000              add [eax],al
00001D04  0000              add [eax],al
00001D06  0000              add [eax],al
00001D08  0000              add [eax],al
00001D0A  0000              add [eax],al
00001D0C  0000              add [eax],al
00001D0E  0000              add [eax],al
00001D10  0000              add [eax],al
00001D12  0000              add [eax],al
00001D14  0000              add [eax],al
00001D16  0000              add [eax],al
00001D18  0000              add [eax],al
00001D1A  0000              add [eax],al
00001D1C  0000              add [eax],al
00001D1E  0000              add [eax],al
00001D20  0000              add [eax],al
00001D22  0000              add [eax],al
00001D24  0000              add [eax],al
00001D26  0000              add [eax],al
00001D28  0000              add [eax],al
00001D2A  0000              add [eax],al
00001D2C  0000              add [eax],al
00001D2E  0000              add [eax],al
00001D30  0000              add [eax],al
00001D32  0000              add [eax],al
00001D34  0000              add [eax],al
00001D36  0000              add [eax],al
00001D38  0000              add [eax],al
00001D3A  0000              add [eax],al
00001D3C  0000              add [eax],al
00001D3E  0000              add [eax],al
00001D40  0000              add [eax],al
00001D42  0000              add [eax],al
00001D44  0000              add [eax],al
00001D46  0000              add [eax],al
00001D48  0000              add [eax],al
00001D4A  0000              add [eax],al
00001D4C  0000              add [eax],al
00001D4E  0000              add [eax],al
00001D50  0000              add [eax],al
00001D52  0000              add [eax],al
00001D54  0000              add [eax],al
00001D56  0000              add [eax],al
00001D58  0000              add [eax],al
00001D5A  0000              add [eax],al
00001D5C  0000              add [eax],al
00001D5E  0000              add [eax],al
00001D60  0000              add [eax],al
00001D62  0000              add [eax],al
00001D64  0000              add [eax],al
00001D66  0000              add [eax],al
00001D68  0000              add [eax],al
00001D6A  0000              add [eax],al
00001D6C  0000              add [eax],al
00001D6E  0000              add [eax],al
00001D70  0000              add [eax],al
00001D72  0000              add [eax],al
00001D74  0000              add [eax],al
00001D76  0000              add [eax],al
00001D78  0000              add [eax],al
00001D7A  0000              add [eax],al
00001D7C  0000              add [eax],al
00001D7E  0000              add [eax],al
00001D80  0000              add [eax],al
00001D82  0000              add [eax],al
00001D84  0000              add [eax],al
00001D86  0000              add [eax],al
00001D88  0000              add [eax],al
00001D8A  0000              add [eax],al
00001D8C  0000              add [eax],al
00001D8E  0000              add [eax],al
00001D90  0000              add [eax],al
00001D92  0000              add [eax],al
00001D94  0000              add [eax],al
00001D96  0000              add [eax],al
00001D98  0000              add [eax],al
00001D9A  0000              add [eax],al
00001D9C  0000              add [eax],al
00001D9E  0000              add [eax],al
00001DA0  0000              add [eax],al
00001DA2  0000              add [eax],al
00001DA4  0000              add [eax],al
00001DA6  0000              add [eax],al
00001DA8  0000              add [eax],al
00001DAA  0000              add [eax],al
00001DAC  0000              add [eax],al
00001DAE  0000              add [eax],al
00001DB0  0000              add [eax],al
00001DB2  0000              add [eax],al
00001DB4  0000              add [eax],al
00001DB6  0000              add [eax],al
00001DB8  0000              add [eax],al
00001DBA  0000              add [eax],al
00001DBC  0000              add [eax],al
00001DBE  0000              add [eax],al
00001DC0  0000              add [eax],al
00001DC2  0000              add [eax],al
00001DC4  0000              add [eax],al
00001DC6  0000              add [eax],al
00001DC8  0000              add [eax],al
00001DCA  0000              add [eax],al
00001DCC  0000              add [eax],al
00001DCE  0000              add [eax],al
00001DD0  0000              add [eax],al
00001DD2  0000              add [eax],al
00001DD4  0000              add [eax],al
00001DD6  0000              add [eax],al
00001DD8  0000              add [eax],al
00001DDA  0000              add [eax],al
00001DDC  0000              add [eax],al
00001DDE  0000              add [eax],al
00001DE0  0000              add [eax],al
00001DE2  0000              add [eax],al
00001DE4  0000              add [eax],al
00001DE6  0000              add [eax],al
00001DE8  0000              add [eax],al
00001DEA  0000              add [eax],al
00001DEC  0000              add [eax],al
00001DEE  0000              add [eax],al
00001DF0  0000              add [eax],al
00001DF2  0000              add [eax],al
00001DF4  0000              add [eax],al
00001DF6  0000              add [eax],al
00001DF8  0000              add [eax],al
00001DFA  0000              add [eax],al
00001DFC  0000              add [eax],al
00001DFE  0000              add [eax],al
00001E00  0000              add [eax],al
00001E02  0000              add [eax],al
00001E04  0000              add [eax],al
00001E06  0000              add [eax],al
00001E08  0000              add [eax],al
00001E0A  0000              add [eax],al
00001E0C  0000              add [eax],al
00001E0E  0000              add [eax],al
00001E10  0000              add [eax],al
00001E12  0000              add [eax],al
00001E14  0000              add [eax],al
00001E16  0000              add [eax],al
00001E18  0000              add [eax],al
00001E1A  0000              add [eax],al
00001E1C  0000              add [eax],al
00001E1E  0000              add [eax],al
00001E20  0000              add [eax],al
00001E22  0000              add [eax],al
00001E24  0000              add [eax],al
00001E26  0000              add [eax],al
00001E28  0000              add [eax],al
00001E2A  0000              add [eax],al
00001E2C  0000              add [eax],al
00001E2E  0000              add [eax],al
00001E30  0000              add [eax],al
00001E32  0000              add [eax],al
00001E34  0000              add [eax],al
00001E36  0000              add [eax],al
00001E38  0000              add [eax],al
00001E3A  0000              add [eax],al
00001E3C  0000              add [eax],al
00001E3E  0000              add [eax],al
00001E40  0000              add [eax],al
00001E42  0000              add [eax],al
00001E44  0000              add [eax],al
00001E46  0000              add [eax],al
00001E48  0000              add [eax],al
00001E4A  0000              add [eax],al
00001E4C  0000              add [eax],al
00001E4E  0000              add [eax],al
00001E50  0000              add [eax],al
00001E52  0000              add [eax],al
00001E54  0000              add [eax],al
00001E56  0000              add [eax],al
00001E58  0000              add [eax],al
00001E5A  0000              add [eax],al
00001E5C  0000              add [eax],al
00001E5E  0000              add [eax],al
00001E60  0000              add [eax],al
00001E62  0000              add [eax],al
00001E64  0000              add [eax],al
00001E66  0000              add [eax],al
00001E68  0000              add [eax],al
00001E6A  0000              add [eax],al
00001E6C  0000              add [eax],al
00001E6E  0000              add [eax],al
00001E70  0000              add [eax],al
00001E72  0000              add [eax],al
00001E74  0000              add [eax],al
00001E76  0000              add [eax],al
00001E78  0000              add [eax],al
00001E7A  0000              add [eax],al
00001E7C  0000              add [eax],al
00001E7E  0000              add [eax],al
00001E80  0000              add [eax],al
00001E82  0000              add [eax],al
00001E84  0000              add [eax],al
00001E86  0000              add [eax],al
00001E88  0000              add [eax],al
00001E8A  0000              add [eax],al
00001E8C  0000              add [eax],al
00001E8E  0000              add [eax],al
00001E90  0000              add [eax],al
00001E92  0000              add [eax],al
00001E94  0000              add [eax],al
00001E96  0000              add [eax],al
00001E98  0000              add [eax],al
00001E9A  0000              add [eax],al
00001E9C  0000              add [eax],al
00001E9E  0000              add [eax],al
00001EA0  0000              add [eax],al
00001EA2  0000              add [eax],al
00001EA4  0000              add [eax],al
00001EA6  0000              add [eax],al
00001EA8  0000              add [eax],al
00001EAA  0000              add [eax],al
00001EAC  0000              add [eax],al
00001EAE  0000              add [eax],al
00001EB0  0000              add [eax],al
00001EB2  0000              add [eax],al
00001EB4  0000              add [eax],al
00001EB6  0000              add [eax],al
00001EB8  0000              add [eax],al
00001EBA  0000              add [eax],al
00001EBC  0000              add [eax],al
00001EBE  0000              add [eax],al
00001EC0  0000              add [eax],al
00001EC2  0000              add [eax],al
00001EC4  0000              add [eax],al
00001EC6  0000              add [eax],al
00001EC8  0000              add [eax],al
00001ECA  0000              add [eax],al
00001ECC  0000              add [eax],al
00001ECE  0000              add [eax],al
00001ED0  0000              add [eax],al
00001ED2  0000              add [eax],al
00001ED4  0000              add [eax],al
00001ED6  0000              add [eax],al
00001ED8  0000              add [eax],al
00001EDA  0000              add [eax],al
00001EDC  0000              add [eax],al
00001EDE  0000              add [eax],al
00001EE0  0000              add [eax],al
00001EE2  0000              add [eax],al
00001EE4  0000              add [eax],al
00001EE6  0000              add [eax],al
00001EE8  0000              add [eax],al
00001EEA  0000              add [eax],al
00001EEC  0000              add [eax],al
00001EEE  0000              add [eax],al
00001EF0  0000              add [eax],al
00001EF2  0000              add [eax],al
00001EF4  0000              add [eax],al
00001EF6  0000              add [eax],al
00001EF8  0000              add [eax],al
00001EFA  0000              add [eax],al
00001EFC  0000              add [eax],al
00001EFE  0000              add [eax],al
00001F00  0000              add [eax],al
00001F02  0000              add [eax],al
00001F04  0000              add [eax],al
00001F06  0000              add [eax],al
00001F08  0000              add [eax],al
00001F0A  0000              add [eax],al
00001F0C  0000              add [eax],al
00001F0E  0000              add [eax],al
00001F10  0000              add [eax],al
00001F12  0000              add [eax],al
00001F14  0000              add [eax],al
00001F16  0000              add [eax],al
00001F18  0000              add [eax],al
00001F1A  0000              add [eax],al
00001F1C  0000              add [eax],al
00001F1E  0000              add [eax],al
00001F20  0000              add [eax],al
00001F22  0000              add [eax],al
00001F24  0000              add [eax],al
00001F26  0000              add [eax],al
00001F28  0000              add [eax],al
00001F2A  0000              add [eax],al
00001F2C  0000              add [eax],al
00001F2E  0000              add [eax],al
00001F30  0000              add [eax],al
00001F32  0000              add [eax],al
00001F34  0000              add [eax],al
00001F36  0000              add [eax],al
00001F38  0000              add [eax],al
00001F3A  0000              add [eax],al
00001F3C  0000              add [eax],al
00001F3E  0000              add [eax],al
00001F40  0000              add [eax],al
00001F42  0000              add [eax],al
00001F44  0000              add [eax],al
00001F46  0000              add [eax],al
00001F48  0000              add [eax],al
00001F4A  0000              add [eax],al
00001F4C  0000              add [eax],al
00001F4E  0000              add [eax],al
00001F50  0000              add [eax],al
00001F52  0000              add [eax],al
00001F54  0000              add [eax],al
00001F56  0000              add [eax],al
00001F58  0000              add [eax],al
00001F5A  0000              add [eax],al
00001F5C  0000              add [eax],al
00001F5E  0000              add [eax],al
00001F60  0000              add [eax],al
00001F62  0000              add [eax],al
00001F64  0000              add [eax],al
00001F66  0000              add [eax],al
00001F68  0000              add [eax],al
00001F6A  0000              add [eax],al
00001F6C  00                db 0x00
